mads 2.0.6 build 58 (28 Jan 17)
Source: C:\jac\system\Java\Programming\Workspaces\Productions\com.wudsn.productions.atari800.thecartstudio\asm\atarimax\old\MaxflashMenu-Old.asm
     1 				;	@com.wudsn.ide.asm.outputfileextension=.rom
     2
     3 					opt h-
     4
     5 = 3FF7			l3ff7	= lbff7-$8000
     6
     7  00 01 FA 05 00 06 A2 +  	ins "Maxflash-Example.rom",+0,127*$2000
     8
     9 				;	.word $ffff, $a000, $bfff
    10 					icl "MaxflashMenu-SystemEquates.asm"
Source: C:\jac\system\Java\Programming\Workspaces\Productions\com.wudsn.productions.atari800.thecartstudio\asm\atarimax\old\MaxflashMenu-SystemEquates.asm
     1 				;	@com.wudsn.ide.asm.mainsourcefile=MaxflashMenu-Old.asm
     2 				;
     3 				; system equates
     4 				;
     5 				; os equates
     6 				; ----------
     7 				; 
     8 				; syntax:
     9 				; use '=' for addresses
    10 				; and '<' for read addresses (ex: kbcode)
    11 				; and '>' for write addresses (ex: stimer)
    12 				; and '#' for values
    13 				; 
    14 				; io equates
    15 				; 
    16 = 0000			ichid	= $0000
    17 = 0001			icdno	= $0001
    18 = 0002			iccom	= $0002
    19 = 0003			icsta	= $0003
    20 = 0004			icbal	= $0004
    21 = 0005			icbah	= $0005
    22 = 0006			icptl	= $0006
    23 = 0007			icpth	= $0007
    24 = 0008			icbll	= $0008
    25 = 0009			icblh	= $0009
    26 = 000A			icax1	= $000a
    27 = 000B			icax2	= $000b
    28 = 000C			icax3	= $000c
    29 = 000D			icax4	= $000d
    30 = 000E			icax5	= $000e
    31 = 000F			icax6	= $000f
    32 				; 
    33 				; display list equates
    34 				; 
    35 = 0080			adli	= $0080
    36 = 0040			avb	= $0040
    37 = 0040			alms	= $0040
    38 = 0020			avscr	= $0020
    39 = 0010			ahscr	= $0010
    40 = 0001			ajmp	= $0001
    41 = 0000			aempty1	= $0000
    42 = 0010			aempty2	= $0010
    43 = 0020			aempty3	= $0020
    44 = 0030			aempty4	= $0030
    45 = 0040			aempty5	= $0040
    46 = 0050			aempty6	= $0050
    47 = 0060			aempty7	= $0060
    48 = 0070			aempty8	= $0070
    49 				; 
    50 				; os variables for xl/xe
    51 				; 
    52 				; page 0
    53 				; 
    54 = 0001			ngflag	= $0001
    55 = 0002			casini	= $0002
    56 = 0004			ramlo	= $0004
    57 = 0006			tramsz	= $0006
    58 = 0007			cmcmd	= $0007
    59 = 0008			warmst	= $0008
    60 = 0009			boot	= $0009
    61 = 000A			dosvec	= $000a
    62 = 000C			dosini	= $000c
    63 = 000E			appmhi	= $000e
    64 = 0010			pokmsk	= $0010
    65 = 0011			brkkey	= $0011
    66 = 0012			rtclok	= $0012
    67 = 0015			bufadr	= $0015
    68 = 0017			iccomt	= $0017
    69 = 0018			dskfms	= $0018
    70 = 001A			dskutl	= $001a
    71 = 001C			abufpt	= $001c
    72 = 0020			ichidz	= $0020
    73 = 0021			icdnoz	= $0021
    74 = 0022			iccomz	= $0022
    75 = 0023			icstaz	= $0023
    76 = 0024			icbalz	= $0024
    77 = 0025			icbahz	= $0025
    78 = 0026			icptlz	= $0026
    79 = 0027			icpthz	= $0027
    80 = 0028			icbllz	= $0028
    81 = 0029			icblhz	= $0029
    82 = 002A			icax1z	= $002a
    83 = 002B			icax2z	= $002b
    84 = 002C			icax3z	= $002c
    85 = 002D			icax4z	= $002d
    86 = 002E			icax5z	= $002e
    87 = 002F			icax6z	= $002f
    88 = 0030			status	= $0030
    89 = 0031			chksum	= $0031
    90 = 0032			bufrlo	= $0032
    91 = 0033			bufrhi	= $0033
    92 = 0034			bfenlo	= $0034
    93 = 0035			bfenhi	= $0035
    94 = 0036			ltemp	= $0036
    95 = 0038			bufrfl	= $0038
    96 = 0039			recvdn	= $0039
    97 = 003A			xmtdon	= $003a
    98 = 003B			chksnt	= $003b
    99 = 003C			nocksm	= $003c
   100 = 003D			bptr	= $003d
   101 = 003E			ftype	= $003e
   102 = 003F			feof	= $003f
   103 = 0040			freq	= $0040
   104 = 0041			soundr	= $0041
   105 = 0042			critic	= $0042
   106 = 0043			fmszpg	= $0043
   107 = 004A			zchain	= $004a
   108 = 004C			dstat	= $004c
   109 = 004D			atract	= $004d
   110 = 004E			drkmsk	= $004e
   111 = 004F			colrsh	= $004f
   112 = 0050			temp	= $0050
   113 = 0051			hold1	= $0051
   114 = 0052			lmargn	= $0052
   115 = 0053			rmargn	= $0053
   116 = 0054			rowcrs	= $0054
   117 = 0055			colcrs	= $0055
   118 = 0057			dindex	= $0057
   119 = 0058			savmsc	= $0058
   120 = 005A			oldrow	= $005a
   121 = 005B			oldcol	= $005b
   122 = 005D			oldchr	= $005d
   123 = 005E			oldadr	= $005e
   124 = 0060			fkdef	= $0060
   125 = 0062			palnts	= $0062
   126 = 0063			logcol	= $0063
   127 = 0064			adress	= $0064
   128 = 0066			mlttmp	= $0066
   129 = 0068			savadr	= $0068
   130 = 006A			ramtop	= $006a
   131 = 006B			bufcnt	= $006b
   132 = 006C			bufstr	= $006c
   133 = 006E			bitmsk	= $006e
   134 = 006F			shfamt	= $006f
   135 = 0070			rowac	= $0070
   136 = 0072			colac	= $0072
   137 = 0074			endpt	= $0074
   138 = 0076			deltar	= $0076
   139 = 0077			deltac	= $0077
   140 = 0079			keydef	= $0079
   141 = 007B			swpflg	= $007b
   142 = 007C			holdch	= $007c
   143 = 007D			insdat	= $007d
   144 = 007E			countr	= $007e
   145 = 0080			lomem	= $0080
   146 				; 
   147 				; page 2
   148 				; 
   149 = 0200			vdslst	= $0200
   150 = 0202			vprced	= $0202
   151 = 0204			vinter	= $0204
   152 = 0206			vbreak	= $0206
   153 = 0208			vkeybd	= $0208
   154 = 020A			vserin	= $020a
   155 = 020C			vseror	= $020c
   156 = 020E			vseroc	= $020e
   157 = 0210			vtimr1	= $0210
   158 = 0212			vtimr2	= $0212
   159 = 0214			vtimr4	= $0214
   160 = 0216			vimirq	= $0216
   161 = 0218			cdtmv1	= $0218
   162 = 021A			cdtmv2	= $021a
   163 = 021C			cdtmv3	= $021c
   164 = 021E			cdtmv4	= $021e
   165 = 0220			cdtmv5	= $0220
   166 = 0222			vvblki	= $0222
   167 = 0224			vvblkd	= $0224
   168 = 0226			cdtma1	= $0226
   169 = 0228			cdtma2	= $0228
   170 = 022A			cdtmf3	= $022a
   171 = 022B			srtimr	= $022b
   172 = 022C			cdtmf4	= $022c
   173 = 022D			intemp	= $022d
   174 = 022E			cdtmf5	= $022e
   175 = 022F			sdmctl	= $022f
   176 = 0230			sdlstl	= $0230
   177 = 0231			sdlsth	= $0231
   178 = 0232			sskctl	= $0232
   179 = 0233			spare	= $0233
   180 = 0234			lpenh	= $0234
   181 = 0235			lpenv	= $0235
   182 = 0236			brkky	= $0236
   183 = 0238			vpirq	= $0238
   184 = 023A			cdevic	= $023a
   185 = 023B			ccomnd	= $023b
   186 = 023C			caux1	= $023c
   187 = 023D			caux2	= $023d
   188 = 023E			tmpsio	= $023e
   189 = 023F			errflg	= $023f
   190 = 0240			dflags	= $0240
   191 = 0241			dbsect	= $0241
   192 = 0242			bootad	= $0242
   193 = 0244			coldst	= $0244
   194 = 0245			reclen	= $0245
   195 = 0246			dsktim	= $0246
   196 = 0247			pdvmsk	= $0247
   197 = 0248			shpdvs	= $0248
   198 = 0249			pdmsk	= $0249
   199 = 024A			reladr	= $024a
   200 = 024C			pptmpa	= $024c
   201 = 024D			pptmpx	= $024d
   202 = 026B			chsalt	= $026b
   203 = 026C			vsflag	= $026c
   204 = 026D			keydis	= $026d
   205 = 026E			fine	= $026e
   206 = 026F			gprior	= $026f
   207 = 0270			paddl0	= $0270
   208 = 0271			paddl1	= $0271
   209 = 0272			paddl2	= $0272
   210 = 0273			paddl3	= $0273
   211 = 0274			paddl4	= $0274
   212 = 0275			paddl5	= $0275
   213 = 0276			paddl6	= $0276
   214 = 0277			paddl7	= $0277
   215 = 0278			stick0	= $0278
   216 = 0279			stick1	= $0279
   217 = 027A			stick2	= $027a
   218 = 027B			stick3	= $027b
   219 = 027C			ptrig0	= $027c
   220 = 027D			ptrig1	= $027d
   221 = 027E			ptrig2	= $027e
   222 = 027F			ptrig3	= $027f
   223 = 0280			ptrig4	= $0280
   224 = 0281			ptrig5	= $0281
   225 = 0282			ptrig6	= $0282
   226 = 0283			ptrig7	= $0283
   227 = 0284			strig0	= $0284
   228 = 0285			strig1	= $0285
   229 = 0286			strig2	= $0286
   230 = 0287			strig3	= $0287
   231 = 0288			hibyte	= $0288
   232 = 0289			wmode	= $0289
   233 = 028A			blim	= $028a
   234 = 028B			imask	= $028b
   235 = 028C			jveck	= $028c
   236 = 028E			newadr	= $028e
   237 = 0290			txtrow	= $0290
   238 = 0291			txtcol	= $0291
   239 = 0293			tindex	= $0293
   240 = 0294			txtmsc	= $0294
   241 = 0296			txtold	= $0296
   242 = 029C			cretry	= $029c
   243 = 029D			hold3	= $029d
   244 = 029E			subtmp	= $029e
   245 = 029F			hold2	= $029f
   246 = 02A0			dmask	= $02a0
   247 = 02A1			tmplbt	= $02a1
   248 = 02A2			escflg	= $02a2
   249 = 02A3			tabmap	= $02a3
   250 = 02B2			logmap	= $02b2
   251 = 02B6			invflg	= $02b6
   252 = 02B7			filflg	= $02b7
   253 = 02B8			tmprow	= $02b8
   254 = 02B9			tmpcol	= $02b9
   255 = 02BB			scrflg	= $02bb
   256 = 02BC			hold4	= $02bc
   257 = 02BD			dretry	= $02bd
   258 = 02BE			shfloc	= $02be
   259 = 02BF			botscr	= $02bf
   260 = 02C0			pcolr0	= $02c0
   261 = 02C1			pcolr1	= $02c1
   262 = 02C2			pcolr2	= $02c2
   263 = 02C3			pcolr3	= $02c3
   264 = 02C4			color0	= $02c4
   265 = 02C5			color1	= $02c5
   266 = 02C6			color2	= $02c6
   267 = 02C7			color3	= $02c7
   268 = 02C8			color4	= $02c8
   269 = 02C9			runadr	= $02c9
   270 = 02CB			hiused	= $02cb
   271 = 02CD			zhiuse	= $02cd
   272 = 02CF			gbytea	= $02cf
   273 = 02D1			loadad	= $02d1
   274 = 02D3			zloada	= $02d3
   275 = 02D5			dsctln	= $02d5
   276 = 02D7			acmisr	= $02d7
   277 = 02D9			krpder	= $02d9
   278 = 02DA			keyrep	= $02da
   279 = 02DB			noclik	= $02db
   280 = 02DC			helpfg	= $02dc
   281 = 02DD			dmasav	= $02dd
   282 = 02DE			pbpnt	= $02de
   283 = 02DF			pbufsz	= $02df
   284 = 02E0			runad	= $02e0
   285 = 02E2			initad	= $02e2
   286 = 02E4			ramsiz	= $02e4
   287 = 02E5			memtop	= $02e5
   288 = 02E7			memlo	= $02e7
   289 = 02E9			hndlod	= $02e9
   290 = 02EA			dvstat	= $02ea
   291 = 02EE			cbaudl	= $02ee
   292 = 02EF			cbaudh	= $02ef
   293 = 02F0			crsinh	= $02f0
   294 = 02F1			keydel	= $02f1
   295 = 02F2			ch1	= $02f2
   296 = 02F3			chact	= $02f3
   297 = 02F4			chbas	= $02f4
   298 = 02F5			newrow	= $02f5
   299 = 02F6			newcol	= $02f6
   300 = 02F8			rowinc	= $02f8
   301 = 02F9			colinc	= $02f9
   302 = 02FA			char	= $02fa
   303 = 02FB			atachr	= $02fb
   304 = 02FC			ch	= $02fc
   305 = 02FD			fildat	= $02fd
   306 = 02FE			dspflg	= $02fe
   307 = 02FF			ssflag	= $02ff
   308 				; 
   309 				; page 3
   310 				; 
   311 = 0300			ddevic	= $0300
   312 = 0301			dunit	= $0301
   313 = 0302			dcomnd	= $0302
   314 = 0303			dstats	= $0303
   315 = 0304			dbuflo	= $0304
   316 = 0305			dbufhi	= $0305
   317 = 0306			dtimlo	= $0306
   318 = 0307			dunuse	= $0307
   319 = 0308			dbytlo	= $0308
   320 = 0309			dbythi	= $0309
   321 = 030A			daux1	= $030a
   322 = 030B			daux2	= $030b
   323 = 030C			timer1	= $030c
   324 = 030E			addcor	= $030e
   325 = 030F			casflg	= $030f
   326 = 0310			timer2	= $0310
   327 = 0312			temp1	= $0312
   328 = 0314			temp2	= $0314
   329 = 0315			temp3	= $0315
   330 = 0316			savio	= $0316
   331 = 0317			timflg	= $0317
   332 = 0318			stackp	= $0318
   333 = 0319			tstat	= $0319
   334 = 031A			hatabs	= $031a
   335 = 033D			pupbt1	= $033d
   336 = 033E			pupbt2	= $033e
   337 = 033F			pupbt3	= $033f
   338 = 0340			iocb0	= $0340
   339 = 0350			iocb1	= $0350
   340 = 0360			iocb2	= $0360
   341 = 0370			iocb3	= $0370
   342 = 0380			iocb4	= $0380
   343 = 0390			iocb5	= $0390
   344 = 03A0			iocb6	= $03a0
   345 = 03B0			iocb7	= $03b0
   346 = 03C0			prnbuf	= $03c0
   347 = 03E8			superf	= $03e8
   348 = 03E9			ckey	= $03e9
   349 = 03EA			cassbt	= $03ea
   350 = 03EB			cartck	= $03eb
   351 = 03EC			derrf	= $03ec
   352 = 03ED			acmvar	= $03ed
   353 = 03F8			basicf	= $03f8
   354 = 03F9			mintlk	= $03f9
   355 = 03FA			gintlk	= $03fa
   356 = 03FB			chlink	= $03fb
   357 = 03FD			casbuf	= $03fd
   358 				; 
   359 				; hardware registers
   360 				; 
   361 				; gtia
   362 				; 
   363 = D000			m0pf	= $d000
   364 = D000			hposp0	= $d000
   365 = D001			m1pf	= $d001
   366 = D001			hposp1	= $d001
   367 = D002			m2pf	= $d002
   368 = D002			hposp2	= $d002
   369 = D003			m3pf	= $d003
   370 = D003			hposp3	= $d003
   371 = D004			p0pf	= $d004
   372 = D004			hposm0	= $d004
   373 = D005			p1pf	= $d005
   374 = D005			hposm1	= $d005
   375 = D006			p2pf	= $d006
   376 = D006			hposm2	= $d006
   377 = D007			p3pf	= $d007
   378 = D007			hposm3	= $d007
   379 = D008			m0pl	= $d008
   380 = D008			sizep0	= $d008
   381 = D009			m1pl	= $d009
   382 = D009			sizep1	= $d009
   383 = D00A			m2pl	= $d00a
   384 = D00A			sizep2	= $d00a
   385 = D00B			m3pl	= $d00b
   386 = D00B			sizep3	= $d00b
   387 = D00C			p0pl	= $d00c
   388 = D00C			sizem	= $d00c
   389 = D00D			p1pl	= $d00d
   390 = D00D			grafp0	= $d00d
   391 = D00E			p2pl	= $d00e
   392 = D00E			grafp1	= $d00e
   393 = D00F			p3pl	= $d00f
   394 = D00F			grafp2	= $d00f
   395 = D010			trig0	= $d010
   396 = D010			grafp3	= $d010
   397 = D011			trig1	= $d011
   398 = D011			grafm	= $d011
   399 = D012			trig2	= $d012
   400 = D012			colpm0	= $d012
   401 = D013			trig3	= $d013
   402 = D013			colpm1	= $d013
   403 = D014			pal	= $d014
   404 = D014			colpm2	= $d014
   405 = D015			colpm3	= $d015
   406 = D016			colpf0	= $d016
   407 = D017			colpf1	= $d017
   408 = D018			colpf2	= $d018
   409 = D019			colpf3	= $d019
   410 = D01A			colbk	= $d01a
   411 = D01B			prior	= $d01b
   412 = D01C			vdelay	= $d01c
   413 = D01D			gractl	= $d01d
   414 = D01E			hitclr	= $d01e
   415 = D01F			consol	= $d01f
   416 				; 
   417 				; pokey
   418 				; 
   419 = D200			pot0	= $d200
   420 = D200			audf1	= $d200
   421 = D201			pot1	= $d201
   422 = D201			audc1	= $d201
   423 = D202			pot2	= $d202
   424 = D202			audf2	= $d202
   425 = D203			pot3	= $d203
   426 = D203			audc2	= $d203
   427 = D204			pot4	= $d204
   428 = D204			audf3	= $d204
   429 = D205			pot5	= $d205
   430 = D205			audc3	= $d205
   431 = D206			pot6	= $d206
   432 = D206			audf4	= $d206
   433 = D207			pot7	= $d207
   434 = D207			audc4	= $d207
   435 = D208			allpot	= $d208
   436 = D208			audctl	= $d208
   437 = D209			kbcode	= $d209
   438 = D209			stimer	= $d209
   439 = D20A			random	= $d20a
   440 = D20A			skrest	= $d20a
   441 = D20B			potgo	= $d20b
   442 = D20D			serin	= $d20d
   443 = D20D			serout	= $d20d
   444 = D20E			irqst	= $d20e
   445 = D20E			irqen	= $d20e
   446 = D20F			skstat	= $d20f
   447 = D20F			skctl	= $d20f
   448 				; 
   449 				; pia
   450 				; 
   451 = D300			porta	= $d300
   452 = D301			portb	= $d301
   453 = D302			pactl	= $d302
   454 = D303			pbctl	= $d303
   455 				; 
   456 				; antic
   457 				; 
   458 = D400			dmaclt	= $d400
   459 = D401			chactl	= $d401
   460 = D402			dlistl	= $d402
   461 = D403			dlisth	= $d403
   462 = D404			hscrol	= $d404
   463 = D405			vscrol	= $d405
   464 = D407			pmbase	= $d407
   465 = D409			chbase	= $d409
   466 = D40A			wsync	= $d40a
   467 = D40B			vcount	= $d40b
   468 = D40C			penh	= $d40c
   469 = D40D			penv	= $d40d
   470 = D40E			nmien	= $d40e
   471 = D40F			nmist	= $d40f
   472 = D40F			nmires	= $d40f
   473 				; 
   474 				; floating point routines
   475 				; 
   476 = D800			afp	= $d800
   477 = D8E6			fasc	= $d8e6
   478 = D9AA			ifp	= $d9aa
   479 = D9D2			fpi	= $d9d2
   480 = DA44			zfr0	= $da44
   481 = DA46			zf1	= $da46
   482 = DA60			fsub	= $da60
   483 = DA66			fadd	= $da66
   484 = DADB			fmul	= $dadb
   485 = DB28			fdiv	= $db28
   486 = DD40			plyevl	= $dd40
   487 = DD89			fld0r	= $dd89
   488 = DD8D			fld0p	= $dd8d
   489 = DD98			fld1r	= $dd98
   490 = DD9C			fld1p	= $dd9c
   491 = DDA7			fstor	= $dda7
   492 = DDAB			fstop	= $ddab
   493 = DDB6			fmove	= $ddb6
   494 = DDC0			exp	= $ddc0
   495 = DDCC			exp10	= $ddcc
   496 = DECD			log	= $decd
   497 = DED1			log10	= $ded1
   498 				; 
   499 				; rom vectors
   500 				; 
   501 = E453			dskinv	= $e453
   502 = E456			ciov	= $e456
   503 = E459			siov	= $e459
   504 = E45C			setvbv	= $e45c
   505 = E45F			sysvbv	= $e45f
   506 = E462			xitvbv	= $e462
   507 = E465			sioinv	= $e465
   508 = E468			sendev	= $e468
   509 = E46B			intinv	= $e46b
   510 = E46E			cioinv	= $e46e
   511 = E471			selfsv	= $e471
   512 = E474			warmsv	= $e474
   513 = E477			coldsv	= $e477
   514 = E47A			rblokv	= $e47a
   515 = E47D			csopiv	= $e47d
   516 = E480			pupdiv	= $e480
   517 = E483			selftsv	= $e483
   518 = E486			pentv	= $e486
   519 = E489			phunlv	= $e489
   520 = E48C			phiniv	= $e48c
   521 = E48F			gpdvv	= $e48f
    11
    12 				;
    13 				; code equates
    14 				;
    15 = 0084			l0084	= $0084
    16 = 0085			l0085	= $0085
    17 = 0086			l0086	= $0086
    18 = 0087			l0087	= $0087
    19 = 0088			l0088	= $0088
    20 = 0089			l0089	= $0089
    21 = 008A			l008a	= $008a
    22 = 008B			l008b	= $008b
    23 = 008C			l008c	= $008c
    24 = 008D			l008d	= $008d
    25 = 00D4			l00d4	= $00d4
    26 = 00D5			l00d5	= $00d5
    27 = 00D6			l00d6	= $00d6
    28 = 00D9			l00d9	= $00d9
    29 = 00DA			l00da	= $00da
    30 = 00DF			l00df	= $00df
    31 = 00E0			l00e0	= $00e0
    32 = 00E1			l00e1	= $00e1
    33 = 00E2			l00e2	= $00e2
    34 = 00E6			l00e6	= $00e6
    35 = 00EC			l00ec	= $00ec
    36 = 00ED			l00ed	= $00ed
    37 = 00EE			l00ee	= $00ee
    38 = 00EF			l00ef	= $00ef
    39 = 00F0			l00f0	= $00f0
    40 = 00F1			l00f1	= $00f1
    41 = 00F2			l00f2	= $00f2
    42 = 00F3			l00f3	= $00f3
    43 = 00F4			l00f4	= $00f4
    44 = 00F5			l00f5	= $00f5
    45 = 00F6			l00f6	= $00f6
    46 = 00F7			l00f7	= $00f7
    47 = 00F8			l00f8	= $00f8
    48 = 00F9			l00f9	= $00f9
    49 = 00FA			l00fa	= $00fa
    50 = 00FB			l00fb	= $00fb
    51 = 00FC			l00fc	= $00fc
    52 = 00FD			l00fd	= $00fd
    53 = 00FE			l00fe	= $00fe
    54 = 00FF			l00ff	= $00ff
    55 = 0100			l0100	= $0100
    56 = 0118			l0118	= $0118
    57 = 0119			l0119	= $0119
    58 = 011A			l011a	= $011a
    59 = 0159			l0159	= $0159
    60 = 015B			l015b	= $015b
    61 = 015C			l015c	= $015c
    62 = 0180			l0180	= $0180
    63 = 0194			l0194	= $0194
    64 = 01E7			l01e7	= $01e7
    65 = 057F			l057f	= $057f
    66 = 0580			l0580	= $0580
    67 = 0581			l0581	= $0581
    68 = 0582			l0582	= $0582
    69 = 1000			l1000	= $1000
    70 = 1028			l1028	= $1028
    71 = 1050			l1050	= $1050
    72 = 1078			l1078	= $1078
    73 = 10A0			l10a0	= $10a0
    74 = 10C8			l10c8	= $10c8
    75 = 10F0			l10f0	= $10f0
    76 = 1118			l1118	= $1118
    77 = 1140			l1140	= $1140
    78 = 1168			l1168	= $1168
    79 = 1190			l1190	= $1190
    80 = 11B8			l11b8	= $11b8
    81 = 11E0			l11e0	= $11e0
    82 = 1208			l1208	= $1208
    83 = 1230			l1230	= $1230
    84 = 1258			l1258	= $1258
    85 = 1280			l1280	= $1280
    86 = 12A8			l12a8	= $12a8
    87 = 12D0			l12d0	= $12d0
    88 = 12F8			l12f8	= $12f8
    89 = 1320			l1320	= $1320
    90 = 1370			l1370	= $1370
    91 = 1398			l1398	= $1398
    92 = 1399			l1399	= $1399
    93 = 139A			l139a	= $139a
    94 = 139B			l139b	= $139b
    95 = 139C			l139c	= $139c
    96 = 139D			l139d	= $139d
    97 = 139E			l139e	= $139e
    98 = 139F			selected_entry_l139f	= $139f
    99 = 13A0			menu_ptr_l13a0	= $13a0
   100 = 13A2			l13a2	= $13a2
   101 = 13A3			l13a3	= $13a3
   102 = 13A4			l13a4	= $13a4
   103 = 13A5			l13a5	= $13a5
   104 = 13A6			l13a6	= $13a6
   105 = 13A7			l13a7	= $13a7
   106 = 13A8			l13a8	= $13a8
   107 = 13A9			selected_max_line_l13a9	= $13a9
   108
   109 = 3FF8			l3ff8	= $3ff8
   110
   111 = A000			la000	= $a000
   112 = BFF0			lbff0	= $bff0
   113
   114 					.enum os
   115 = C180			lc180	= $c180
   116 = C1C1			lc1c1	= $c1c1
   117 = C1C2			lc1c2	= $c1c2
   118 = C1C6			lc1c6	= $c1c6
   119 = C1CA			lc1ca	= $c1ca
   120 = C313			lc313	= $c313
   121 = C314			lc314	= $c314
   122 = C315			lc315	= $c315
   123 = C319			lc319	= $c319
   124 = C31A			lc31a	= $c31a
   125 = C322			lc322	= $c322
   126 = C323			lc323	= $c323
   127 = C327			lc327	= $c327
   128 = C328			lc328	= $c328
   129 = C410			lc410	= $c410
   130 = C411			lc411	= $c411
   131 = C412			lc412	= $c412
   132 = C413			lc413	= $c413
   133 = C414			lc414	= $c414
   134 = C41A			lc41a	= $c41a
   135 = C41B			lc41b	= $c41b
   136 = C41E			lc41e	= $c41e
   137 = C41F			lc41f	= $c41f
   138 = C420			lc420	= $c420
   139 = C487			lc487	= $c487
   140 = C488			lc488	= $c488
   141 = C489			lc489	= $c489
   142 = C48A			lc48a	= $c48a
   143 = C48B			lc48b	= $c48b
   144 = C48C			lc48c	= $c48c
   145 = C48D			lc48d	= $c48d
   146 = C48E			lc48e	= $c48e
   147 = C495			lc495	= $c495
   148 = C496			lc496	= $c496
   149 = C497			lc497	= $c497
   150 = C498			lc498	= $c498
   151 = C499			lc499	= $c499
   152 = C49A			lc49a	= $c49a
   153 = C49B			lc49b	= $c49b
   154 = C49C			lc49c	= $c49c
   155 = C4A1			lc4a1	= $c4a1
   156 = C4A2			lc4a2	= $c4a2
   157 = C4A3			lc4a3	= $c4a3
   158 = C4A4			lc4a4	= $c4a4
   159 = C4A5			lc4a5	= $c4a5
   160 = C4A6			lc4a6	= $c4a6
   161 = C4A7			lc4a7	= $c4a7
   162 = C4A8			lc4a8	= $c4a8
   163 = C4AF			lc4af	= $c4af
   164 = C4B0			lc4b0	= $c4b0
   165 = C4B1			lc4b1	= $c4b1
   166 = C4B2			lc4b2	= $c4b2
   167 = C4B3			lc4b3	= $c4b3
   168 = C4B4			lc4b4	= $c4b4
   169 = C4B5			lc4b5	= $c4b5
   170 = C4B6			lc4b6	= $c4b6
   171 = C4BD			lc4bd	= $c4bd
   172 = C4C0			lc4c0	= $c4c0
   173 = C4ED			lc4ed	= $c4ed
   174 = C4EE			lc4ee	= $c4ee
   175 = C4EF			lc4ef	= $c4ef
   176 = C4F9			lc4f9	= $c4f9
   177 = C4FA			lc4fa	= $c4fa
   178 = C4FB			lc4fb	= $c4fb
   179 = C4FC			lc4fc	= $c4fc
   180 = C4FD			lc4fd	= $c4fd
   181 = C507			lc507	= $c507
   182 = C508			lc508	= $c508
   183 = C509			lc509	= $c509
   184 = C50A			lc50a	= $c50a
   185 = C901			lc901	= $c901
   186 = C902			lc902	= $c902
   187 = C903			lc903	= $c903
   188 = C904			lc904	= $c904
   189 = C905			lc905	= $c905
   190 = C90F			lc90f	= $c90f
   191 = C910			lc910	= $c910
   192 = C911			lc911	= $c911
   193 = C912			lc912	= $c912
   194 = C913			lc913	= $c913
   195 = CC80			lcc80	= $cc80
   196 = CCC1			lccc1	= $ccc1
   197 = CCC2			lccc2	= $ccc2
   198 = CCC6			lccc6	= $ccc6
   199 = CCCA			lccca	= $ccca
   200 = E959			le959	= $e959
   201 = F104			lf104	= $f104
   202 = F114			lf114	= $f114
   203 = F115			lf115	= $f115
   204 = F116			lf116	= $f116
   205 = F117			lf117	= $f117
   206 = F257			lf257	= $f257
   207 = F258			lf258	= $f258
   208 = F259			lf259	= $f259
   209 = F25A			lf25a	= $f25a
   210 = F25B			lf25b	= $f25b
   211 					.ende
   212 					
   213 = D500			ld500	= $d500
   214 = D510			ld510	= $d510
   215 = D580			ld580	= $d580
   216 = D818			ld818	= $d818
   217 = D988			ld988	= $d988
   218 = D99C			ld99c	= $d99c
   219 = DA48			lda48	= $da48
   220 = DA51			lda51	= $da51
   221 = DA5A			lda5a	= $da5a
   222 = DAF7			ldaf7	= $daf7
   223 = DB09			ldb09	= $db09
   224 = DB1A			ldb1a	= $db1a
   225 = DB4E			ldb4e	= $db4e
   226 = DB94			ldb94	= $db94
   227 = DB9D			ldb9d	= $db9d
   228 = DBA1			ldba1	= $dba1
   229 = DBAF			ldbaf	= $dbaf
   230 = DBBB			ldbbb	= $dbbb
   231 = DBE7			ldbe7	= $dbe7
   232 = DBEB			ldbeb	= $dbeb
   233 = DC00			ldc00	= $dc00
   234 = DC04			ldc04	= $dc04
   235 = DC3A			ldc3a	= $dc3a
   236 = DC3E			ldc3e	= $dc3e
   237 = DC62			ldc62	= $dc62
   238 = DC70			ldc70	= $dc70
   239 = DC93			ldc93	= $dc93
   240 = DC9D			ldc9d	= $dc9d
   241 = DC9F			ldc9f	= $dc9f
   242 = DCA4			ldca4	= $dca4
   243 = DCB9			ldcb9	= $dcb9
   244 = DCC1			ldcc1	= $dcc1
   245 = DCCF			ldccf	= $dccf
   246 = DCE0			ldce0	= $dce0
   247 = DD01			ldd01	= $dd01
   248 = DD05			ldd05	= $dd05
   249 = DD09			ldd09	= $dd09
   250 = DD0F			ldd0f	= $dd0f
   251 = DD28			ldd28	= $dd28
   252 = DD34			ldd34	= $dd34
   253 = DE95			lde95	= $de95
   254
   255 				;
   256 				; start of code
   257 				;
   258 					org $2000
   259 				;
   260 					.proc l2000
   261 2000 20 A1 DB			jsr ldba1
   262 2003 20 BB DB			jsr ldbbb
   263 2006 B0 39			bcs l2041
   264 2008 A2 ED			ldx #$ed
   265 200A A0 04			ldy #$04
   266 200C 20 48 DA			jsr lda48
   267 200F A2 FF			ldx #$ff
   268 2011 86 F1			stx l00f1
   269 2013 20 44 DA			jsr zfr0
   270 2016 F0 04			beq l201c
   271 2018 A9 FF		l2018	lda #$ff
   272 201A 85 F0			sta l00f0
   273 201C 20 94 DB		l201c	jsr ldb94
   274 201F B0 21			bcs l2042
   275 2021 48				pha
   276 2022 A6 D5			ldx l00d5
   277 2024 D0 11			bne l2037
   278 2026 20 EB DB			jsr ldbeb
   279 2029 68				pla
   280 202A 05 D9			ora l00d9
   281 202C 85 D9			sta l00d9
   282 202E A6 F1			ldx l00f1
   283 2030 30 E6			bmi l2018
   284 2032 E8				inx
   285 2033 86 F1			stx l00f1
   286 2035 D0 E1			bne l2018
   287 2037 68			l2037	pla
   288 2038 A6 F1			ldx l00f1
   289 203A 10 02			bpl l203e
   290 203C E6 ED			inc l00ed
   291 203E 4C 18 D8		l203e	jmp ld818
   292 2041 60			l2041	rts
   293 					.endp
   294
   295 2042				.proc l2042
   296 2042 C9 2E			cmp #$2e
   297 2044 F0 14			beq l205a
   298 2046 C9 45			cmp #$45
   299 2048 F0 19			beq l2063
   300 204A A6 F0			ldx l00f0
   301 204C D0 68			bne l20b6
   302 204E C9 2B			cmp #$2b
   303 2050 F0 C6			beq l2000.l2018
   304 2052 C9 2D			cmp #$2d
   305 2054 F0 00			beq l2056
   306 2056 85 EE		l2056	sta l00ee
   307 2058 F0 BE			beq l2000.l2018
   308 205A A6 F1		l205a	ldx l00f1
   309 205C 10 58			bpl l20b6
   310 205E E8				inx
   311 205F 86 F1			stx l00f1
   312 2061 F0 B5			beq l2000.l2018
   313 2063 A5 F2		l2063	lda l00f2
   314 2065 85 EC			sta l00ec
   315 2067 20 94 DB			jsr ldb94
   316 206A B0 37			bcs l20a3
   317 206C AA			l206c	tax
   318 206D A5 ED			lda l00ed
   319 206F 48				pha
   320 2070 86 ED			stx l00ed
   321 2072 20 94 DB			jsr ldb94
   322 2075 B0 17			bcs l208e
   323 2077 48				pha
   324 2078 A5 ED			lda l00ed
   325 207A 0A				asl
   326 207B 85 ED			sta l00ed
   327 207D 0A				asl
   328 207E 0A				asl
   329 207F 65 ED			adc l00ed
   330 2081 85 ED			sta l00ed
   331 2083 68				pla
   332 2084 18				clc
   333 2085 65 ED			adc l00ed
   334 2087 85 ED			sta l00ed
   335 2089 A4 F2			ldy l00f2
   336 208B 20 9D DB			jsr ldb9d
   337 208E A5 EF		l208e	lda l00ef
   338 2090 F0 09			beq l209b
   339 2092 A5 ED			lda l00ed
   340 2094 49 FF			eor #$ff
   341 2096 18				clc
   342 2097 69 01			adc #$01
   343 2099 85 ED			sta l00ed
   344 209B 68			l209b	pla
   345 209C 18				clc
   346 209D 65 ED			adc l00ed
   347 209F 85 ED			sta l00ed
   348 20A1 D0 13			bne l20b6
   349 20A3 C9 2B		l20a3	cmp #$2b
   350 20A5 F0 06			beq l20ad
   351 20A7 C9 2D			cmp #$2d
   352 20A9 D0 07			bne l20b2
   353 20AB 85 EF			sta l00ef
   354 20AD 20 94 DB		l20ad	jsr ldb94
   355 20B0 90 BA			bcc l206c
   356 20B2 A5 EC		l20b2	lda l00ec
   357 20B4 85 F2			sta l00f2
   358 20B6 C6 F2		l20b6	dec l00f2
   359 20B8 A5 ED			lda l00ed
   360 20BA A6 F1			ldx l00f1
   361 20BC 30 05			bmi l20c3
   362 20BE F0 03			beq l20c3
   363 20C0 38				sec
   364 20C1 E5 F1			sbc l00f1
   365 20C3 48			l20c3	pha
   366 20C4 2A				rol
   367 20C5 68				pla
   368 20C6 6A				ror
   369 20C7 85 ED			sta l00ed
   370 20C9 90 03			bcc l20ce
   371 20CB 20 EB DB			jsr ldbeb
   372 20CE A5 ED		l20ce	lda l00ed
   373 20D0 18				clc
   374 20D1 69 44			adc #$44
   375 20D3 85 D4			sta l00d4
   376 20D5 20 00 DC			jsr ldc00
   377 20D8 B0 0B			bcs l20e5
   378 20DA A6 EE			ldx l00ee
   379 20DC F0 06			beq l20e4
   380 20DE A5 D4			lda l00d4
   381 20E0 09 80			ora #$80
   382 20E2 85 D4			sta l00d4
   383 20E4 18			l20e4	clc
   384 20E5 60			l20e5	rts
   385 					.endp
   386
   387 20E6				.proc unknown_20e6
   388 20E6 20 51 DA			jsr lda51
   389 20E9 A9 30			lda #$30
   390 20EB 8D 7F 05			sta l057f
   391 20EE A5 D4			lda l00d4
   392 20F0 F0 28			beq l211a
   393 20F2 29 7F			and #$7f
   394 20F4 C9 3F			cmp #$3f
   395 20F6 90 28			bcc l2120
   396 20F8 C9 45			cmp #$45
   397 20FA B0 24			bcs l2120
   398 20FC 38				sec
   399 20FD E9 3F			sbc #$3f
   400 20FF 20 70 DC			jsr ldc70
   401 2102 20 A4 DC			jsr ldca4
   402 2105 09 80			ora #$80
   403 2107 9D 80 05			sta l0580,x
   404 210A AD 80 05			lda l0580
   405 210D C9 2E			cmp #$2e
   406 210F F0 03			beq l2114
   407 2111 4C 88 D9			jmp ld988
   408 2114 20 C1 DC		l2114	jsr ldcc1
   409 2117 4C 9C D9			jmp ld99c
   410 211A A9 B0		l211a	lda #$b0
   411 211C 8D 80 05			sta l0580
   412 211F 60				rts
   413 					.endp
   414
   415 2120				.proc l2120
   416 2120 A9 01			lda #$01
   417 2122 20 70 DC			jsr ldc70
   418 2125 20 A4 DC			jsr ldca4
   419 2128 E8				inx
   420 2129 86 F2			stx l00f2
   421 212B A5 D4			lda l00d4
   422 212D 0A				asl
   423 212E 38				sec
   424 212F E9 80			sbc #$80
   425 2131 AE 80 05			ldx l0580
   426 2134 E0 30			cpx #$30
   427 2136 F0 17			beq l214f
   428 2138 AE 81 05			ldx l0581
   429 213B AC 82 05			ldy l0582
   430 213E 8E 82 05			stx l0582
   431 2141 8C 81 05			sty l0581
   432 2144 A6 F2			ldx l00f2
   433 2146 E0 02			cpx #$02
   434 2148 D0 02			bne l214c
   435 214A E6 F2			inc l00f2
   436 214C 18			l214c	clc
   437 214D 69 01			adc #$01
   438 214F 85 ED		l214f	sta l00ed
   439 2151 A9 45			lda #$45
   440 2153 A4 F2			ldy l00f2
   441 2155 20 9F DC			jsr ldc9f
   442 2158 84 F2			sty l00f2
   443 215A A5 ED			lda l00ed
   444 215C 10 0B			bpl l2169
   445 215E A9 00			lda #$00
   446 2160 38				sec
   447 2161 E5 ED			sbc l00ed
   448 2163 85 ED			sta l00ed
   449 2165 A9 2D			lda #$2d
   450 2167 D0 02			bne l216b
   451 2169 A9 2B		l2169	lda #$2b
   452 216B 20 9F DC		l216b	jsr ldc9f
   453 216E A2 00			ldx #$00
   454 2170 A5 ED			lda l00ed
   455 2172 38			l2172	sec
   456 2173 E9 0A			sbc #$0a
   457 2175 90 03			bcc l217a
   458 2177 E8				inx
   459 2178 D0 F8			bne l2172
   460 217A 18			l217a	clc
   461 217B 69 0A			adc #$0a
   462 217D 48				pha
   463 217E 8A				txa
   464 217F 20 9D DC			jsr ldc9d
   465 2182 68				pla
   466 2183 09 80			ora #$80
   467 2185 20 9D DC			jsr ldc9d
   468 2188 AD 80 05			lda l0580
   469 218B C9 30			cmp #$30
   470 218D D0 0D			bne l219c
   471 218F 18				clc
   472 2190 A5 F3			lda l00f3
   473 2192 69 01			adc #$01
   474 2194 85 F3			sta l00f3
   475 2196 A5 F4			lda l00f4
   476 2198 69 00			adc #$00
   477 219A 85 F4			sta l00f4
   478 219C A5 D4		l219c	lda l00d4
   479 219E 10 09			bpl l21a9
   480 21A0 20 C1 DC			jsr ldcc1
   481 21A3 A0 00			ldy #$00
   482 21A5 A9 2D			lda #$2d
   483 21A7 91 F3			sta (l00f3),y
   484 21A9 60			l21a9	rts
   485 					.endp
   486
   487 21AA				.proc unknown_l21aa
   488 21AA A5 D4			lda l00d4
   489 21AC 85 F8			sta l00f8
   490 21AE A5 D5			lda l00d5
   491 21B0 85 F7			sta l00f7
   492 21B2 20 44 DA			jsr zfr0
   493 21B5 F8				sed
   494 21B6 A0 10			ldy #$10
   495 21B8 06 F8		l21b8	asl l00f8
   496 21BA 26 F7			rol l00f7
   497 21BC A2 03			ldx #$03
   498 21BE B5 D4		l21be	lda l00d4,x
   499 21C0 75 D4			adc l00d4,x
   500 21C2 95 D4			sta l00d4,x
   501 21C4 CA				dex
   502 21C5 D0 F7			bne l21be
   503 21C7 88				dey
   504 21C8 D0 EE			bne l21b8
   505 21CA D8				cld
   506 21CB A9 42			lda #$42
   507 21CD 85 D4			sta l00d4
   508 21CF 4C 00 DC			jmp ldc00
   509 21D2 A9 00			lda #$00
   510 21D4 85 F7			sta l00f7
   511 21D6 85 F8			sta l00f8
   512 21D8 A5 D4			lda l00d4
   513 21DA 30 66			bmi l2242
   514 21DC C9 43			cmp #$43
   515 21DE B0 62			bcs l2242
   516 21E0 38				sec
   517 21E1 E9 40			sbc #$40
   518 21E3 90 3F			bcc l2224
   519 21E5 69 00			adc #$00
   520 21E7 0A				asl
   521 21E8 85 F5			sta l00f5
   522 21EA 20 5A DA		l21ea	jsr lda5a
   523 21ED B0 53			bcs l2242
   524 21EF A5 F7			lda l00f7
   525 21F1 85 F9			sta l00f9
   526 21F3 A5 F8			lda l00f8
   527 21F5 85 FA			sta l00fa
   528 21F7 20 5A DA			jsr lda5a
   529 21FA B0 46			bcs l2242
   530 21FC 20 5A DA			jsr lda5a
   531 21FF B0 41			bcs l2242
   532 2201 18				clc
   533 2202 A5 F8			lda l00f8
   534 2204 65 FA			adc l00fa
   535 2206 85 F8			sta l00f8
   536 2208 A5 F7			lda l00f7
   537 220A 65 F9			adc l00f9
   538 220C 85 F7			sta l00f7
   539 220E B0 32			bcs l2242
   540 2210 20 B9 DC			jsr ldcb9
   541 2213 18				clc
   542 2214 65 F8			adc l00f8
   543 2216 85 F8			sta l00f8
   544 2218 A5 F7			lda l00f7
   545 221A 69 00			adc #$00
   546 221C B0 24			bcs l2242
   547 221E 85 F7			sta l00f7
   548 2220 C6 F5			dec l00f5
   549 2222 D0 C6			bne l21ea
   550 2224 20 B9 DC		l2224	jsr ldcb9
   551 2227 C9 05			cmp #$05
   552 2229 90 0D			bcc l2238
   553 222B 18				clc
   554 222C A5 F8			lda l00f8
   555 222E 69 01			adc #$01
   556 2230 85 F8			sta l00f8
   557 2232 A5 F7			lda l00f7
   558 2234 69 00			adc #$00
   559 2236 85 F7			sta l00f7
   560 2238 A5 F8		l2238	lda l00f8
   561 223A 85 D4			sta l00d4
   562 223C A5 F7			lda l00f7
   563 223E 85 D5			sta l00d5
   564 2240 18				clc
   565 2241 60				rts
   566 2242 38			l2242	sec
   567 2243 60				rts
   568 2244 A2 D4			ldx #$d4
   569 2246 A0 06			ldy #$06
   570 2248 A9 00			lda #$00
   571 224A 95 00		l224a	sta $00,x
   572 224C E8				inx
   573 224D 88				dey
   574 224E D0 FA			bne l224a
   575 2250 60				rts
   576 2251 A9 05			lda #$05
   577 2253 85 F4			sta l00f4
   578 2255 A9 80			lda #$80
   579 2257 85 F3			sta l00f3
   580 2259 60				rts
   581 225A 18				clc
   582 225B 26 F8			rol l00f8
   583 225D 26 F7			rol l00f7
   584 225F 60				rts
   585 2260 A5 E0			lda l00e0
   586 2262 49 80			eor #$80
   587 2264 85 E0			sta l00e0
   588 2266 A5 E0		l2266	lda l00e0
   589 2268 29 7F			and #$7f
   590 226A 85 F7			sta l00f7
   591 226C A5 D4			lda l00d4
   592 226E 29 7F			and #$7f
   593 2270 38				sec
   594 2271 E5 F7			sbc l00f7
   595 2273 10 10			bpl l2285
   596 2275 A2 05			ldx #$05
   597 2277 B5 D4		l2277	lda l00d4,x
   598 2279 B4 E0			ldy l00e0,x
   599 227B 95 E0			sta l00e0,x
   600 227D 98				tya
   601 227E 95 D4			sta l00d4,x
   602 2280 CA				dex
   603 2281 10 F4			bpl l2277
   604 2283 30 E1			bmi l2266
   605 2285 F0 07		l2285	beq l228e
   606 2287 C9 05			cmp #$05
   607 2289 B0 19			bcs l22a4
   608 228B 20 3E DC			jsr ldc3e
   609 228E F8			l228e	sed
   610 228F A5 D4			lda l00d4
   611 2291 45 E0			eor l00e0
   612 2293 30 1E			bmi l22b3
   613 2295 A2 04			ldx #$04
   614 2297 18				clc
   615 2298 B5 D5		l2298	lda l00d5,x
   616 229A 75 E1			adc l00e1,x
   617 229C 95 D5			sta l00d5,x
   618 229E CA				dex
   619 229F 10 F7			bpl l2298
   620 22A1 D8				cld
   621 22A2 B0 03			bcs l22a7
   622 22A4 4C 00 DC		l22a4	jmp ldc00
   623 22A7 A9 01		l22a7	lda #$01
   624 22A9 20 3A DC			jsr ldc3a
   625 22AC A9 01			lda #$01
   626 22AE 85 D5			sta l00d5
   627 22B0 4C 00 DC			jmp ldc00
   628 22B3 A2 04		l22b3	ldx #$04
   629 22B5 38				sec
   630 22B6 B5 D5		l22b6	lda l00d5,x
   631 22B8 F5 E1			sbc l00e1,x
   632 22BA 95 D5			sta l00d5,x
   633 22BC CA				dex
   634 22BD 10 F7			bpl l22b6
   635 22BF 90 04			bcc l22c5
   636 22C1 D8				cld
   637 22C2 4C 00 DC			jmp ldc00
   638 22C5 A5 D4		l22c5	lda l00d4
   639 22C7 49 80			eor #$80
   640 22C9 85 D4			sta l00d4
   641 22CB 38				sec
   642 22CC A2 04			ldx #$04
   643 22CE A9 00		l22ce	lda #$00
   644 22D0 F5 D5			sbc l00d5,x
   645 22D2 95 D5			sta l00d5,x
   646 22D4 CA				dex
   647 22D5 10 F7			bpl l22ce
   648 22D7 D8				cld
   649 22D8 4C 00 DC			jmp ldc00
   650 22DB A5 D4			lda l00d4
   651 22DD F0 45			beq l2324
   652 22DF A5 E0			lda l00e0
   653 22E1 F0 3E			beq l2321
   654 22E3 20 CF DC			jsr ldccf
   655 22E6 38				sec
   656 22E7 E9 40			sbc #$40
   657 22E9 38				sec
   658 22EA 65 E0			adc l00e0
   659 22EC 30 38			bmi l2326
   660 22EE 20 E0 DC			jsr ldce0
   661 22F1 A5 DF		l22f1	lda l00df
   662 22F3 29 0F			and #$0f
   663 22F5 85 F6			sta l00f6
   664 22F7 C6 F6			dec l00f6
   665 22F9 30 06			bmi l2301
   666 22FB 20 01 DD			jsr ldd01
   667 22FE 4C F7 DA			jmp ldaf7
   668 2301 A5 DF		l2301	lda l00df
   669 2303 4A				lsr
   670 2304 4A				lsr
   671 2305 4A				lsr
   672 2306 4A				lsr
   673 2307 85 F6			sta l00f6
   674 2309 C6 F6			dec l00f6
   675 230B 30 06			bmi l2313
   676 230D 20 05 DD			jsr ldd05
   677 2310 4C 09 DB			jmp ldb09
   678 2313 20 62 DC		l2313	jsr ldc62
   679 2316 C6 F5			dec l00f5
   680 2318 D0 D7			bne l22f1
   681 231A A5 ED			lda l00ed
   682 231C 85 D4			sta l00d4
   683 231E 4C 04 DC			jmp ldc04
   684 2321 20 44 DA		l2321	jsr zfr0
   685 2324 18			l2324	clc
   686 2325 60				rts
   687 2326 38			l2326	sec
   688 2327 60				rts
   689
   690 2328 A5 E0			lda l00e0
   691 232A F0 FA			beq l2326
   692 232C A5 D4			lda l00d4
   693 232E F0 F4			beq l2324
   694 2330 20 CF DC			jsr ldccf
   695 2333 38				sec
   696 2334 E5 E0			sbc l00e0
   697 2336 18				clc
   698 2337 69 40			adc #$40
   699 2339 30 EB			bmi l2326
   700 233B 20 E0 DC			jsr ldce0
   701 233E E6 F5			inc l00f5
   702 2340 4C 4E DB			jmp ldb4e
   703 					.endp
   704
   705 2343				.proc l2343
   706 2343 A2 00			ldx #$00
   707 2345 B5 D5		l2345	lda l00d5,x
   708 2347 95 D4			sta l00d4,x
   709 2349 E8				inx
   710 234A E0 0C			cpx #$0c
   711 234C D0 F7			bne l2345
   712 234E A0 05		l234e	ldy #$05
   713 2350 38				sec
   714 2351 F8				sed
   715 2352 B9 DA 00		l2352	lda l00da,y
   716 2355 F9 E6 00			sbc l00e6,y
   717 2358 99 DA 00			sta l00da,y
   718 235B 88				dey
   719 235C 10 F4			bpl l2352
   720 235E D8				cld
   721 235F 90 04			bcc l2365
   722 2361 E6 D9			inc l00d9
   723 2363 D0 E9			bne l234e
   724 2365 20 0F DD		l2365	jsr ldd0f
   725 2368 06 D9			asl l00d9
   726 236A 06 D9			asl l00d9
   727 236C 06 D9			asl l00d9
   728 236E 06 D9			asl l00d9
   729 2370 A0 05		l2370	ldy #$05
   730 2372 38				sec
   731 2373 F8				sed
   732 2374 B9 DA 00		l2374	lda l00da,y
   733 2377 F9 E0 00			sbc l00e0,y
   734 237A 99 DA 00			sta l00da,y
   735 237D 88				dey
   736 237E 10 F4			bpl l2374
   737 2380 D8				cld
   738 2381 90 04			bcc l2387
   739 2383 E6 D9			inc l00d9
   740 2385 D0 E9			bne l2370
   741 2387 20 09 DD		l2387	jsr ldd09
   742 238A C6 F5			dec l00f5
   743 238C D0 B5			bne l2343
   744 238E 20 62 DC			jsr ldc62
   745 2391 4C 1A DB			jmp ldb1a
   746 					
   747 2394 20 AF DB			jsr ldbaf
   748 2397 A4 F2			ldy l00f2
   749 2399 90 02			bcc l239d
   750 239B B1 F3			lda (l00f3),y
   751 239D C8			l239d	iny
   752 239E 84 F2			sty l00f2
   753 23A0 60				rts
   754 23A1 A4 F2			ldy l00f2
   755 23A3 A9 20			lda #$20
   756 23A5 D1 F3		l23a5	cmp (l00f3),y
   757 23A7 D0 03			bne l23ac
   758 23A9 C8				iny
   759 23AA D0 F9			bne l23a5
   760 23AC 84 F2		l23ac	sty l00f2
   761 23AE 60				rts
   762 					.endp
   763
   764 23AF				.proc unknown_l23af
   765 23AF A4 F2			ldy l00f2
   766 23B1 B1 F3			lda (l00f3),y
   767 23B3 38				sec
   768 23B4 E9 30			sbc #$30
   769 23B6 90 18			bcc l23d0
   770 23B8 C9 0A			cmp #$0a
   771 23BA 60				rts
   772 23BB A5 F2			lda l00f2
   773 23BD 48				pha
   774 23BE 20 94 DB			jsr ldb94
   775 23C1 90 1F			bcc l23e2
   776 23C3 C9 2E			cmp #$2e
   777 23C5 F0 14			beq l23db
   778 23C7 C9 2B			cmp #$2b
   779 23C9 F0 07			beq l23d2
   780 23CB C9 2D			cmp #$2d
   781 23CD F0 03			beq l23d2
   782 23CF 68			l23cf	pla
   783 23D0 38			l23d0	sec
   784 23D1 60				rts
   785 23D2 20 94 DB		l23d2	jsr ldb94
   786 23D5 90 0B			bcc l23e2
   787 23D7 C9 2E			cmp #$2e
   788 23D9 D0 F4			bne l23cf
   789 23DB 20 94 DB		l23db	jsr ldb94
   790 23DE 90 02			bcc l23e2
   791 23E0 B0 ED			bcs l23cf
   792 23E2 68			l23e2	pla
   793 23E3 85 F2			sta l00f2
   794 23E5 18				clc
   795 23E6 60				rts
   796 23E7 A2 E7			ldx #$e7
   797 23E9 D0 02			bne l23ed
   798 23EB A2 D5			ldx #$d5
   799 23ED A0 04		l23ed	ldy #$04
   800 23EF 18			l23ef	clc
   801 23F0 36 04			rol ramlo,x
   802 23F2 36 03			rol casini+1,x
   803 23F4 36 02			rol casini,x
   804 23F6 36 01			rol ngflag,x
   805 23F8 36 00			rol $00,x
   806 23FA 26 EC			rol l00ec
   807 23FC 88				dey
   808 23FD D0 F0			bne l23ef
   809 23FF 60				rts
   810 2400 A2 00			ldx #$00
   811 2402 86 DA			stx l00da
   812 2404 A2 04			ldx #$04
   813 2406 A5 D4			lda l00d4
   814 2408 F0 2E			beq l2438
   815 240A A5 D5		l240a	lda l00d5
   816 240C D0 1A			bne l2428
   817 240E A0 00			ldy #$00
   818 2410 B9 D6 00		l2410	lda l00d6,y
   819 2413 99 D5 00			sta l00d5,y
   820 2416 C8				iny
   821 2417 C0 05			cpy #$05
   822 2419 90 F5			bcc l2410
   823 241B C6 D4			dec l00d4
   824 241D CA				dex
   825 241E D0 EA			bne l240a
   826 2420 A5 D5			lda l00d5
   827 2422 D0 04			bne l2428
   828 2424 85 D4			sta l00d4
   829 2426 18				clc
   830 2427 60				rts
   831 2428 A5 D4		l2428	lda l00d4
   832 242A 29 7F			and #$7f
   833 242C C9 71			cmp #$71
   834 242E 90 01			bcc l2431
   835 2430 60				rts
   836 2431 C9 0F		l2431	cmp #$0f
   837 2433 B0 03			bcs l2438
   838 2435 20 44 DA			jsr zfr0
   839 2438 18			l2438	clc
   840 2439 60				rts
   841 243A A2 D4			ldx #$d4
   842 243C D0 02			bne l2440
   843 243E A2 E0			ldx #$e0
   844 2440 86 F9		l2440	stx l00f9
   845 2442 85 F7			sta l00f7
   846 2444 85 F8			sta l00f8
   847 2446 A0 04		l2446	ldy #$04
   848 2448 B5 04		l2448	lda ramlo,x
   849 244A 95 05			sta ramlo+1,x
   850 244C CA				dex
   851 244D 88				dey
   852 244E D0 F8			bne l2448
   853 2450 A9 00			lda #$00
   854 2452 95 05			sta ramlo+1,x
   855 2454 A6 F9			ldx l00f9
   856 2456 C6 F7			dec l00f7
   857 2458 D0 EC			bne l2446
   858 245A B5 00			lda $00,x
   859 245C 18				clc
   860 245D 65 F8			adc l00f8
   861 245F 95 00			sta $00,x
   862 2461 60				rts
   863 2462 A2 0A			ldx #$0a
   864 2464 B5 D4		l2464	lda l00d4,x
   865 2466 95 D5			sta l00d5,x
   866 2468 CA				dex
   867 2469 10 F9			bpl l2464
   868 246B A9 00			lda #$00
   869 246D 85 D4			sta l00d4
   870 246F 60				rts
   871 2470 85 F7			sta l00f7
   872 2472 A2 00			ldx #$00
   873 2474 A0 00			ldy #$00
   874 2476 20 93 DC		l2476	jsr ldc93
   875 2479 38				sec
   876 247A E9 01			sbc #$01
   877 247C 85 F7			sta l00f7
   878 247E B5 D5			lda l00d5,x
   879 2480 4A				lsr
   880 2481 4A				lsr
   881 2482 4A				lsr
   882 2483 4A				lsr
   883 2484 20 9D DC			jsr ldc9d
   884 2487 B5 D5			lda l00d5,x
   885 2489 29 0F			and #$0f
   886 248B 20 9D DC			jsr ldc9d
   887 248E E8				inx
   888 248F E0 05			cpx #$05
   889 2491 90 E3			bcc l2476
   890 2493 A5 F7			lda l00f7
   891 2495 D0 05			bne l249c
   892 2497 A9 2E			lda #$2e
   893 2499 20 9F DC			jsr ldc9f
   894 249C 60			l249c	rts
   895 249D 09 30			ora #$30
   896 249F 99 80 05			sta l0580,y
   897 24A2 C8				iny
   898 24A3 60				rts
   899 24A4 A2 0A			ldx #$0a
   900 24A6 BD 80 05		l24a6	lda l0580,x
   901 24A9 C9 2E			cmp #$2e
   902 24AB F0 07			beq l24b4
   903 24AD C9 30			cmp #$30
   904 24AF D0 07			bne l24b8
   905 24B1 CA				dex
   906 24B2 D0 F2			bne l24a6
   907 24B4 CA			l24b4	dex
   908 24B5 BD 80 05			lda l0580,x
   909 24B8 60			l24b8	rts
   910 24B9 20 EB DB			jsr ldbeb
   911 24BC A5 EC			lda l00ec
   912 24BE 29 0F			and #$0f
   913 24C0 60				rts
   914 24C1 38				sec
   915 24C2 A5 F3			lda l00f3
   916 24C4 E9 01			sbc #$01
   917 24C6 85 F3			sta l00f3
   918 24C8 A5 F4			lda l00f4
   919 24CA E9 00			sbc #$00
   920 24CC 85 F4			sta l00f4
   921 24CE 60				rts
   922 24CF A5 D4			lda l00d4
   923 24D1 45 E0			eor l00e0
   924 24D3 29 80			and #$80
   925 24D5 85 EE			sta l00ee
   926 24D7 06 E0			asl l00e0
   927 24D9 46 E0			lsr l00e0
   928 24DB A5 D4			lda l00d4
   929 24DD 29 7F			and #$7f
   930 24DF 60				rts
   931 24E0 05 EE			ora l00ee
   932 24E2 85 ED			sta l00ed
   933 24E4 A9 00			lda #$00
   934 24E6 85 D4			sta l00d4
   935 24E8 85 E0			sta l00e0
   936 24EA 20 28 DD			jsr ldd28
   937 24ED 20 E7 DB			jsr ldbe7
   938 24F0 A5 EC			lda l00ec
   939 24F2 29 0F			and #$0f
   940 24F4 85 E6			sta l00e6
   941 24F6 A9 05			lda #$05
   942 24F8 85 F5			sta l00f5
   943 24FA 20 34 DD			jsr ldd34
   944 24FD 20 44 DA			jsr zfr0
   945 2500 60				rts
   946 2501 A2 D9			ldx #$d9
   947 2503 D0 06			bne l250b
   948 2505 A2 D9			ldx #$d9
   949 2507 D0 08			bne l2511
   950 2509 A2 DF			ldx #$df
   951 250B A0 E5		l250b	ldy #$e5
   952 250D D0 04			bne l2513
   953 250F A2 DF			ldx #$df
   954 2511 A0 EB		l2511	ldy #$eb
   955 2513 A9 05		l2513	lda #$05
   956 2515 85 F7			sta l00f7
   957 2517 18				clc
   958 2518 F8				sed
   959 2519 B5 00		l2519	lda $00,x
   960 251B 79 00 00			adc $0000,y
   961 251E 95 00			sta $00,x
   962 2520 CA				dex
   963 2521 88				dey
   964 2522 C6 F7			dec l00f7
   965 2524 10 F3			bpl l2519
   966 2526 D8				cld
   967 2527 60				rts
   968 2528 A0 05			ldy #$05
   969 252A B9 E0 00		l252a	lda l00e0,y
   970 252D 99 E6 00			sta l00e6,y
   971 2530 88				dey
   972 2531 10 F7			bpl l252a
   973 2533 60				rts
   974 2534 A0 05			ldy #$05
   975 2536 B9 D4 00		l2536	lda l00d4,y
   976 2539 99 DA 00			sta l00da,y
   977 253C 88				dey
   978 253D 10 F7			bpl l2536
   979 253F 60				rts
   980 2540 86 FE			stx l00fe
   981 2542 84 FF			sty l00ff
   982 2544 85 EF			sta l00ef
   983 2546 A2 E0			ldx #$e0
   984 2548 A0 05			ldy #$05
   985 254A 20 A7 DD			jsr fstor
   986 254D 20 B6 DD			jsr fmove
   987 2550 A6 FE			ldx l00fe
   988 2552 A4 FF			ldy l00ff
   989 2554 20 89 DD			jsr fld0r
   990 2557 C6 EF			dec l00ef
   991 2559 F0 2D			beq l2588
   992 255B 20 DB DA		l255b	jsr fmul
   993 255E B0 28			bcs l2588
   994 2560 18				clc
   995 2561 A5 FE			lda l00fe
   996 2563 69 06			adc #$06
   997 2565 85 FE			sta l00fe
   998 2567 90 06			bcc l256f
   999 2569 A5 FF			lda l00ff
  1000 256B 69 00			adc #$00
  1001 256D 85 FF			sta l00ff
  1002 256F A6 FE		l256f	ldx l00fe
  1003 2571 A4 FF			ldy l00ff
  1004 2573 20 98 DD			jsr fld1r
  1005 2576 20 66 DA			jsr fadd
  1006 2579 B0 0D			bcs l2588
  1007 257B C6 EF			dec l00ef
  1008 257D F0 09			beq l2588
  1009 257F A2 E0			ldx #$e0
  1010 2581 A0 05			ldy #$05
  1011 2583 20 98 DD			jsr fld1r
  1012 2586 30 D3			bmi l255b
  1013 2588 60			l2588	rts
  1014 2589 86 FC			stx l00fc
  1015 258B 84 FD			sty l00fd
  1016 258D A0 05			ldy #$05
  1017 258F B1 FC		l258f	lda (l00fc),y
  1018 2591 99 D4 00			sta l00d4,y
  1019 2594 88				dey
  1020 2595 10 F8			bpl l258f
  1021 2597 60				rts
  1022 2598 86 FC			stx l00fc
  1023 259A 84 FD			sty l00fd
  1024 259C A0 05			ldy #$05
  1025 259E B1 FC		l259e	lda (l00fc),y
  1026 25A0 99 E0 00			sta l00e0,y
  1027 25A3 88				dey
  1028 25A4 10 F8			bpl l259e
  1029 25A6 60				rts
  1030 25A7 86 FC			stx l00fc
  1031 25A9 84 FD			sty l00fd
  1032 25AB A0 05			ldy #$05
  1033 25AD B9 D4 00		l25ad	lda l00d4,y
  1034 25B0 91 FC			sta (l00fc),y
  1035 25B2 88				dey
  1036 25B3 10 F8			bpl l25ad
  1037 25B5 60				rts
  1038 25B6 A2 05			ldx #$05
  1039 25B8 B5 D4		l25b8	lda l00d4,x
  1040 25BA 95 E0			sta l00e0,x
  1041 25BC CA				dex
  1042 25BD 10 F9			bpl l25b8
  1043 25BF 60				rts
  1044 25C0 A2 89			ldx #$89
  1045 25C2 A0 DE			ldy #$de
  1046 25C4 20 98 DD			jsr fld1r
  1047 25C7 20 DB DA			jsr fmul
  1048 25CA B0 7F			bcs l264b
  1049 25CC A9 00			lda #$00
  1050 25CE 85 F1			sta l00f1
  1051 25D0 A5 D4			lda l00d4
  1052 25D2 85 F0			sta l00f0
  1053 25D4 29 7F			and #$7f
  1054 25D6 85 D4			sta l00d4
  1055 25D8 38				sec
  1056 25D9 E9 40			sbc #$40
  1057 25DB 30 26			bmi l2603
  1058 25DD C9 04			cmp #$04
  1059 25DF 10 6A			bpl l264b
  1060 25E1 A2 E6			ldx #$e6
  1061 25E3 A0 05			ldy #$05
  1062 25E5 20 A7 DD			jsr fstor
  1063 25E8 20 D2 D9			jsr fpi
  1064 25EB A5 D4			lda l00d4
  1065 25ED 85 F1			sta l00f1
  1066 25EF A5 D5			lda l00d5
  1067 25F1 D0 58			bne l264b
  1068 25F3 20 AA D9			jsr ifp
  1069 25F6 20 B6 DD			jsr fmove
  1070 25F9 A2 E6			ldx #$e6
  1071 25FB A0 05			ldy #$05
  1072 25FD 20 89 DD			jsr fld0r
  1073 2600 20 60 DA			jsr fsub
  1074 2603 A9 0A		l2603	lda #$0a
  1075 2605 A2 4D			ldx #$4d
  1076 2607 A0 DE			ldy #$de
  1077 2609 20 40 DD			jsr plyevl
  1078 260C 20 B6 DD			jsr fmove
  1079 260F 20 DB DA			jsr fmul
  1080 2612 A5 F1			lda l00f1
  1081 2614 F0 23			beq l2639
  1082 2616 18				clc
  1083 2617 6A				ror
  1084 2618 85 E0			sta l00e0
  1085 261A A9 01			lda #$01
  1086 261C 90 02			bcc l2620
  1087 261E A9 10			lda #$10
  1088 2620 85 E1		l2620	sta l00e1
  1089 2622 A2 04			ldx #$04
  1090 2624 A9 00			lda #$00
  1091 2626 95 E2		l2626	sta l00e2,x
  1092 2628 CA				dex
  1093 2629 10 FB			bpl l2626
  1094 262B A5 E0			lda l00e0
  1095 262D 18				clc
  1096 262E 69 40			adc #$40
  1097 2630 B0 19			bcs l264b
  1098 2632 30 17			bmi l264b
  1099 2634 85 E0			sta l00e0
  1100 2636 20 DB DA			jsr fmul
  1101 2639 A5 F0		l2639	lda l00f0
  1102 263B 10 0D			bpl l264a
  1103 263D 20 B6 DD			jsr fmove
  1104 2640 A2 8F			ldx #$8f
  1105 2642 A0 DE			ldy #$de
  1106 2644 20 89 DD			jsr fld0r
  1107 2647 20 28 DB			jsr fdiv
  1108 264A 60			l264a	rts
  1109 264B 38			l264b	sec
  1110 264C 60				rts
  1111 					.endp
  1112
  1113 264D 3D 17 94 19 00 00 + 	.byte $3d,$17,$94,$19,$00,$00,$3d,$57,$33,$05,$00,$00,$3e,$05,$54,$76
  1114 265D 62 00 3E 32 19 62 + 	.byte $62,$00,$3e,$32,$19,$62,$27,$00,$3f,$01,$68,$60,$30,$36,$3f,$07
  1115 266D 32 03 27 41 3F 25 + 	.byte $32,$03,$27,$41,$3f,$25,$43,$34,$56,$75,$3f,$66,$27,$37,$30,$50
  1116 267D 40 01 15 12 92 55 + 	.byte $40,$01,$15,$12,$92,$55,$3f,$99,$99,$99,$99,$99,$3f,$43,$42,$94
  1117 268D 48 19 40 01 00 00 + 	.byte $48,$19,$40,$01,$00,$00,$00,$00
  1118 2695 86 FE			stx l00fe
  1119 2697 84 FF			sty l00ff
  1120 2699 A2 E0			ldx #$e0
  1121 269B A0 05			ldy #$05
  1122 269D 20 A7 DD			jsr fstor
  1123 26A0 A6 FE			ldx l00fe
  1124 26A2 A4 FF			ldy l00ff
  1125 26A4 20 98 DD			jsr fld1r
  1126 26A7 20 66 DA			jsr fadd
  1127 26AA A2 E6			ldx #$e6
  1128 26AC A0 05			ldy #$05
  1129 26AE 20 A7 DD			jsr fstor
  1130 26B1 A2 E0			ldx #$e0
  1131 26B3 A0 05			ldy #$05
  1132 26B5 20 89 DD			jsr fld0r
  1133 26B8 A6 FE			ldx l00fe
  1134 26BA A4 FF			ldy l00ff
  1135 26BC 20 98 DD			jsr fld1r
  1136 26BF 20 60 DA			jsr fsub
  1137 26C2 A2 E6			ldx #$e6
  1138 26C4 A0 05			ldy #$05
  1139 26C6 20 98 DD			jsr fld1r
  1140 26C9 20 28 DB			jsr fdiv
  1141 26CC 60				rts
  1142 26CD A9 01			lda #$01
  1143 26CF D0 02			bne l26d3
  1144 26D1 A9 00			lda #$00
  1145 26D3 85 F0		l26d3	sta l00f0
  1146 26D5 A5 D4			lda l00d4
  1147 26D7 10 02			bpl l26db
  1148 26D9 38				sec
  1149 26DA 60				rts
  1150 26DB A5 D4		l26db	lda l00d4
  1151 26DD 85 E0			sta l00e0
  1152 26DF 38				sec
  1153 26E0 E9 40			sbc #$40
  1154 26E2 0A				asl
  1155 26E3 85 F1			sta l00f1
  1156 26E5 A5 D5			lda l00d5
  1157 26E7 29 F0			and #$f0
  1158 26E9 D0 04			bne l26ef
  1159 26EB A9 01			lda #$01
  1160 26ED D0 04			bne l26f3
  1161 26EF E6 F1		l26ef	inc l00f1
  1162 26F1 A9 10			lda #$10
  1163 26F3 85 E1		l26f3	sta l00e1
  1164 26F5 A2 04			ldx #$04
  1165 26F7 A9 00			lda #$00
  1166 26F9 95 E2		l26f9	sta l00e2,x
  1167 26FB CA				dex
  1168 26FC 10 FB			bpl l26f9
  1169 26FE 20 28 DB			jsr fdiv
  1170 2701 A2 66			ldx #$66
  1171 2703 A0 DF			ldy #$df
  1172 2705 20 95 DE			jsr lde95
  1173 2708 A2 E6			ldx #$e6
  1174 270A A0 05			ldy #$05
  1175 270C 20 A7 DD			jsr fstor
  1176 270F 20 B6 DD			jsr fmove
  1177 2712 20 DB DA			jsr fmul
  1178 2715 A9 0A			lda #$0a
  1179 2717 A2 72			ldx #$72
  1180 2719 A0 DF			ldy #$df
  1181 271B 20 40 DD			jsr plyevl
  1182 271E A2 E6			ldx #$e6
  1183 2720 A0 05			ldy #$05
  1184 2722 20 98 DD			jsr fld1r
  1185 2725 20 DB DA			jsr fmul
  1186 2728 A2 6C			ldx #$6c
  1187 272A A0 DF			ldy #$df
  1188 272C 20 98 DD			jsr fld1r
  1189 272F 20 66 DA			jsr fadd
  1190 2732 20 B6 DD			jsr fmove
  1191 2735 A9 00			lda #$00
  1192 2737 85 D5			sta l00d5
  1193 2739 A5 F1			lda l00f1
  1194 273B 85 D4			sta l00d4
  1195 273D 10 07			bpl l2746
  1196 273F 49 FF			eor #$ff
  1197 2741 18				clc
  1198 2742 69 01			adc #$01
  1199 2744 85 D4			sta l00d4
  1200 2746 20 AA D9		l2746	jsr ifp
  1201 2749 24 F1			bit l00f1
  1202 274B 10 06			bpl l2753
  1203 274D A9 80			lda #$80
  1204 274F 05 D4			ora l00d4
  1205 2751 85 D4			sta l00d4
  1206 2753 20 66 DA		l2753	jsr fadd
  1207 2756 A5 F0			lda l00f0
  1208 2758 F0 0A			beq l2764
  1209 275A A2 89			ldx #$89
  1210 275C A0 DE			ldy #$de
  1211 275E 20 98 DD			jsr fld1r
  1212 2761 20 28 DB			jsr fdiv
  1213 2764 18			l2764	clc
  1214 2765 60				rts
  1215 2766 40 03 16 22 77 66 + 	.byte $40,$03,$16,$22,$77,$66,$3f,$50,$00,$00,$00,$00,$3f,$49,$15,$57
  1216 2776 11 08 BF 51 70 49 + 	.byte $11,$08,$bf,$51,$70,$49,$47,$08,$3f,$39,$20,$57,$61,$95,$bf,$04
  1217 2786 39 63 03 55 3F 10 + 	.byte $39,$63,$03,$55,$3f,$10,$09,$30,$12,$64,$3f,$09,$39,$08,$04,$60
  1218 2796 3F 12 42 58 47 42 + 	.byte $3f,$12,$42,$58,$47,$42,$3f,$17,$37,$12,$06,$08,$3f,$28,$95,$29
  1219 27A6 71 17 3F 86 85 88 + 	.byte $71,$17,$3f,$86,$85,$88,$96,$44,$3e,$16,$05,$44,$49,$00,$be,$95
  1220 27B6 68 38 45 00 3F 02 + 	.byte $68,$38,$45,$00,$3f,$02,$68,$79,$94,$16,$bf,$04,$92,$78,$90,$80
  1221 27C6 3F 07 03 15 20 00 + 	.byte $3f,$07,$03,$15,$20,$00,$bf,$08,$92,$29,$12,$44,$3f,$11,$08,$40
  1222 27D6 09 11 BF 14 28 31 + 	.byte $09,$11,$bf,$14,$28,$31,$56,$04,$3f,$19,$99,$98,$77,$44,$bf,$33
  1223 27E6 33 33 31 13 3F 99 + 	.byte $33,$33,$31,$13,$3f,$99,$99,$99,$99,$99,$3f,$78,$53,$98,$16,$34
  1224 27F6 98 16 34 FC E0 32 + 	.byte $98,$16,$34,$fc,$e0,$32,$50,$d9,$68,$11
  1225
  1226 2800				icl "MaxflashMenu-Old-$2800.asm"
Source: C:\jac\system\Java\Programming\Workspaces\Productions\com.wudsn.productions.atari800.thecartstudio\asm\atarimax\old\MaxflashMenu-Old-$2800.asm
     1 				;	@com.wudsn.ide.asm.mainsourcefile=MaxflashMenu-Old.asm
     2
     3 2800				.proc L2800
     4 2800 78			       sei
     5 2801 AD 9B 13		            lda L139B
     6 2804 8D 69 2E		            sta L2E68+1
     7 2807 8D 6D 2B		            sta unknown_atr.L2B6c+1
     8 280A 20 68 2E		            jsr L2E68
     9 280D 20 22 28		            jsr L2822
    10 2810 20 3B 28		            jsr L283B
    11 2813 20 BB 28		            jsr L28BB
    12 2816 20 FE 29		            jsr L29FE
    13 2819 20 3D 2A		            jsr L2A3D
    14 281C 20 89 2A		            jsr L2A89
    15 281F 4C 77 E4		            jmp COLDSV
    16 2822 A0 00		L2822       ldy #$00
    17 2824 B1 84		            lda (L0084),Y
    18 2826 29 80		            and #$80
    19 2828 85 FA		            sta L00FA
    20 282A A0 00		            ldy #$00
    21 282C B1 84		            lda (L0084),Y
    22 282E 29 7F		            and #$7F
    23 2830 C9 07		            cmp #$07
    24 2832 D0 01		            bne L2835
    25 2834 88			            dey
    26 2835 84 FB		L2835       sty L00FB
    27 2837 8C 70 2B		            sty unknown_atr.L2B6f+1
    28 283A 60			            rts
    29 283B AD 04 F1		L283B       lda os.LF104
    30 283E C9 4D		            cmp #$4D
    31 2840 F0 78		            beq L28BA
    32 2842 AD 01 D3		            lda PORTB
    33 2845 09 02		            ora #$02
    34 2847 8D 01 D3		            sta PORTB
    35 284A A9 00		            lda #$00
    36 284C 85 FC		            sta L00FC
    37 284E A9 C0		            lda #$C0
    38 2850 85 FD		            sta L00FD
    39 2852 A9 00		            lda #$00
    40 2854 85 FE		            sta L00FE
    41 2856 A9 40		            lda #$40
    42 2858 85 FF		            sta L00FF
    43 285A A0 00		            ldy #$00
    44 285C B1 FC		L285C       lda (L00FC),Y
    45 285E 91 FE		            sta (L00FE),Y
    46 2860 C8			            iny
    47 2861 D0 F9		            bne L285C
    48 2863 E6 FF		            inc L00FF
    49 2865 E6 FD		            inc L00FD
    50 2867 F0 10		            beq L2879
    51 2869 A5 FF		            lda L00FF
    52 286B C9 50		            cmp #$50
    53 286D D0 ED		            bne L285C
    54 286F A9 58		            lda #$58
    55 2871 85 FF		            sta L00FF
    56 2873 A9 D8		            lda #$D8
    57 2875 85 FD		            sta L00FD
    58 2877 D0 E3		            bne L285C
    59 2879 A9 00		L2879       lda #$00
    60 287B 8D 0E D4		            sta NMIEN
    61 287E AD 01 D3		            lda PORTB
    62 2881 29 FE		            and #$FE
    63 2883 8D 01 D3		            sta PORTB
    64 2886 A9 00		            lda #$00
    65 2888 85 FC		            sta L00FC
    66 288A A9 40		            lda #$40
    67 288C 85 FD		            sta L00FD
    68 288E A9 00		            lda #$00
    69 2890 85 FE		            sta L00FE
    70 2892 A9 C0		            lda #$C0
    71 2894 85 FF		            sta L00FF
    72 2896 A0 00		            ldy #$00
    73 2898 B1 FC		L2898       lda (L00FC),Y
    74 289A 91 FE		            sta (L00FE),Y
    75 289C C8			            iny
    76 289D D0 F9		            bne L2898
    77 289F E6 FD		            inc L00FD
    78 28A1 E6 FF		            inc L00FF
    79 28A3 F0 10		            beq L28B5
    80 28A5 A5 FF		            lda L00FF
    81 28A7 C9 D0		            cmp #$D0
    82 28A9 D0 ED		            bne L2898
    83 28AB A9 D8		            lda #$D8
    84 28AD 85 FF		            sta L00FF
    85 28AF A9 58		            lda #$58
    86 28B1 85 FD		            sta L00FD
    87 28B3 D0 E3		            bne L2898
    88 28B5 A9 40		L28B5       lda #$40
    89 28B7 8D 0E D4		            sta NMIEN
    90 28BA 60			L28BA       rts
    91 28BB AD 04 F1		L28BB       lda os.lf104
    92 28BE C9 4D		            cmp #$4D
    93 28C0 D0 1A		            bne L28DC
    94 28C2 A9 A9		            lda #$A9
    95 28C4 8D 57 F2		            sta os.lf257
    96 28C7 A9 C0		            lda #$C0
    97 28C9 8D 58 F2		            sta os.lf258
    98 28CC A9 85		            lda #$85
    99 28CE 8D 59 F2		            sta os.lf259
   100 28D1 A9 06		            lda #$06
   101 28D3 8D 5A F2		            sta os.lf25A
   102 28D6 A9 60		            lda #$60
   103 28D8 8D 5B F2		            sta os.lf25B
   104 28DB 60			            rts
   105 28DC AD 13 C3		L28DC       lda os.lc313
   106 28DF C9 85		            cmp #$85
   107 28E1 F0 03		            beq L28E6
   108 28E3 4C 72 29		            jmp L2972
   109 28E6 A9 89		L28E6       lda #$89
   110 28E8 8D 27 C3		            sta os.lc327
   111 28EB 8D 22 C3		            sta os.lc322
   112 28EE A9 FF		            lda #$FF
   113 28F0 8D 28 C3		            sta os.lc328
   114 28F3 8D 23 C3		            sta os.lc323
   115 28F6 A9 FE		            lda #$FE
   116 28F8 8D 07 C5		            sta os.lc507
   117 28FB A9 EA		            lda #$EA
   118 28FD 8D 1E C4		            sta os.lc41E
   119 2900 8D 1F C4		            sta os.lc41F
   120 2903 8D 20 C4		            sta os.lc420
   121 2906 8D 95 C4		            sta os.lc495
   122 2909 8D 96 C4		            sta os.lc496
   123 290C 8D 97 C4		            sta os.lc497
   124 290F 8D 98 C4		            sta os.lc498
   125 2912 8D 99 C4		            sta os.lc499
   126 2915 8D 9A C4		            sta os.lc49A
   127 2918 8D 9B C4		            sta os.lc49B
   128 291B 8D 9C C4		            sta os.lc49C
   129 291E 8D AF C4		            sta os.lc4AF
   130 2921 8D B0 C4		            sta os.lc4B0
   131 2924 8D B1 C4		            sta os.lc4B1
   132 2927 8D B2 C4		            sta os.lc4B2
   133 292A 8D B3 C4		            sta os.lc4B3
   134 292D 8D B4 C4		            sta os.lc4B4
   135 2930 8D B5 C4		            sta os.lc4B5
   136 2933 8D B6 C4		            sta os.lc4B6
   137 2936 8D FB C4		            sta os.lc4FB
   138 2939 8D FC C4		            sta os.lc4FC
   139 293C 8D FD C4		            sta os.lc4FD
   140 293F 8D 08 C5		            sta os.lc508
   141 2942 8D 09 C5		            sta os.lc509
   142 2945 8D 0A C5		            sta os.lc50A
   143 2948 A9 A9		            lda #$A9
   144 294A 8D 0F C9		            sta os.LC90F
   145 294D A9 7F		            lda #$7F
   146 294F 8D 10 C9		            sta os.LC910
   147 2952 A9 EA		            lda #$EA
   148 2954 8D 11 C9		            sta os.LC911
   149 2957 8D 12 C9		            sta os.LC912
   150 295A 8D 13 C9		            sta os.LC913
   151 295D A4 FB		            ldy L00FB
   152 295F F0 06		            beq L2967
   153 2961 8D 13 C4		            sta os.lc413
   154 2964 8D 14 C4		            sta os.lc414
   155 2967 A9 C0		L2967       lda #$C0
   156 2969 8D BD C4		            sta os.lc4BD
   157 296C A9 60		            lda #$60
   158 296E 8D C0 C4		            sta os.lc4C0
   159 2971 60			            rts
   160 2972 A9 8E		L2972       lda #$8E
   161 2974 8D 14 C3		            sta os.lc314
   162 2977 8D 19 C3		            sta os.lc319
   163 297A A9 FF		            lda #$FF
   164 297C 8D 15 C3		            sta os.lc315
   165 297F 8D 1A C3		            sta os.lc31A
   166 2982 A9 FE		            lda #$FE
   167 2984 8D F9 C4		            sta os.lc4F9
   168 2987 A9 EA		            lda #$EA
   169 2989 8D 10 C4		            sta os.lc410
   170 298C 8D 11 C4		            sta os.lc411
   171 298F 8D 12 C4		            sta os.lc412
   172 2992 8D 87 C4		            sta os.lc487
   173 2995 8D 88 C4		            sta os.lc488
   174 2998 8D 89 C4		            sta os.lc489
   175 299B 8D 8A C4		            sta os.lc48A
   176 299E 8D 8B C4		            sta os.lc48B
   177 29A1 8D 8C C4		            sta os.lc48C
   178 29A4 8D 8D C4		            sta os.lc48D
   179 29A7 8D 8E C4		            sta os.lc48E
   180 29AA 8D A1 C4		            sta os.lc4A1
   181 29AD 8D A2 C4		            sta os.lc4A2
   182 29B0 8D A3 C4		            sta os.lc4A3
   183 29B3 8D A4 C4		            sta os.lc4A4
   184 29B6 8D A5 C4		            sta os.lc4A5
   185 29B9 8D A6 C4		            sta os.lc4A6
   186 29BC 8D A7 C4		            sta os.lc4A7
   187 29BF 8D A8 C4		            sta os.lc4A8
   188 29C2 8D ED C4		            sta os.lc4ED
   189 29C5 8D EE C4		            sta os.lc4EE
   190 29C8 8D EF C4		            sta os.lc4EF
   191 29CB 8D FA C4		            sta os.lc4FA
   192 29CE 8D FB C4		            sta os.lc4FB
   193 29D1 8D FC C4		            sta os.lc4FC
   194 29D4 A9 A9		            lda #$A9
   195 29D6 8D 01 C9		            sta os.LC901
   196 29D9 A9 7F		            lda #$7F
   197 29DB 8D 02 C9		            sta os.LC902
   198 29DE A9 EA		            lda #$EA
   199 29E0 8D 03 C9		            sta os.LC903
   200 29E3 8D 04 C9		            sta os.LC904
   201 29E6 8D 05 C9		            sta os.LC905
   202 29E9 A4 FB		            ldy L00FB
   203 29EB F0 06		            beq L29F3
   204 29ED 8D 1A C4		            sta os.lc41A
   205 29F0 8D 1B C4		            sta os.lc41B
   206 29F3 A9 C0		L29F3       lda #$C0
   207 29F5 8D AF C4		            sta os.lc4AF
   208 29F8 A9 60		            lda #$60
   209 29FA 8D B2 C4		            sta os.lc4B2
   210 29FD 60			            rts
   211 29FE AE 5A E4		L29FE       ldx siov+1
   212 2A01 AD 5B E4		            lda siov+2
   213 2A04 8E A7 2A		            stx unknown_atr.l2aa6+1
   214 2A07 8D A8 2A		            sta unknown_atr.l2aa6+2
   215 2A0A A4 FA		            ldy L00FA
   216 2A0C D0 06		            bne L2A14
   217 2A0E A2 00		            ldx #$00
   218 2A10 A9 CC		            lda #$CC
   219 2A12 D0 04		            bne L2A18
   220 2A14 A2 00		L2A14       ldx #$00
   221 2A16 A9 C1		            lda #$C1
   222 2A18 86 FE		L2A18       stx L00FE
   223 2A1A 85 FF		            sta L00FF
   224 2A1C 8E 5A E4		            stx siov+1
   225 2A1F 8D 5B E4		            sta siov+2
   226 2A22 A9 96		            lda #$96
   227 2A24 85 FC		            sta L00FC
   228 2A26 A9 2A		            lda #$2A
   229 2A28 85 FD		            sta L00FD
   230 2A2A A2 02		            ldx #$02
   231 2A2C A0 00		            ldy #$00
   232 2A2E B1 FC		L2A2E       lda (L00FC),Y
   233 2A30 91 FE		            sta (L00FE),Y
   234 2A32 C8			            iny
   235 2A33 D0 F9		            bne L2A2E
   236 2A35 E6 FD		            inc L00FD
   237 2A37 E6 FF		            inc L00FF
   238 2A39 CA			            dex
   239 2A3A D0 F2		            bne L2A2E
   240 2A3C 60			            rts
   241 2A3D A0 01		L2A3D       ldy #$01
   242 2A3F B1 84		            lda (L0084),Y
   243 2A41 AA			            tax
   244 2A42 A4 FA		            ldy L00FA
   245 2A44 D0 1A		            bne L2A60
   246 2A46 8E 80 CC		            stx os.LCC80
   247 2A49 A9 2F		            lda #$2F
   248 2A4B 8D C6 CC		            sta os.LCCC6
   249 2A4E A9 CD		            lda #$CD
   250 2A50 8D CA CC		            sta os.LCCCA
   251 2A53 A0 1F		            ldy #$1F
   252 2A55 8C C1 CC		            sty os.LCCC1
   253 2A58 A9 CD		            lda #$CD
   254 2A5A 8D C2 CC		            sta os.LCCC2
   255 2A5D 4C 77 2A		            jmp L2A77
   256 2A60 8E 80 C1		L2A60       stx os.lc180
   257 2A63 A9 2F		            lda #$2F
   258 2A65 8D C6 C1		            sta os.lc1C6
   259 2A68 A9 C2		            lda #$C2
   260 2A6A 8D CA C1		            sta os.lc1CA
   261 2A6D A0 1F		            ldy #$1F
   262 2A6F 8C C1 C1		            sty os.lc1C1
   263 2A72 A9 C2		            lda #$C2
   264 2A74 8D C2 C1		            sta os.lc1C2
   265 2A77 84 FE		L2A77       sty L00FE
   266 2A79 85 FF		            sta L00FF
   267 2A7B A0 00		            ldy #$00
   268 2A7D BD D8 36		L2A7D       lda L36D8,X
   269 2A80 91 FE		            sta (L00FE),Y
   270 2A82 E8			            inx
   271 2A83 C8			            iny
   272 2A84 C0 10		            cpy #$10
   273 2A86 D0 F5		            bne L2A7D
   274 2A88 60			            rts
   275 2A89 A5 FB		L2A89       lda L00FB
   276 2A8B F0 08		            beq L2A95
   277 2A8D AD 01 D3		            lda PORTB
   278 2A90 29 FD		            and #$FD
   279 2A92 8D 01 D3		            sta PORTB
   280 2A95 60			L2A95       rts
   281 					.endp
  1227
  1228 2A96				.proc unknown_atr
  1229 2A96 18				clc
  1230 2A97 AD 00 03			lda ddevic
  1231 2A9A 6D 01 03			adc dunit
  1232 2A9D 69 FF			adc #$ff
  1233 2A9F 8D 3A 02			sta cdevic
  1234 2AA2 C9 31			cmp #$31
  1235 2AA4 F0 03			beq l2aa9
  1236 2AA6 4C 59 E9		l2aa6	jmp os.le959
  1237 2AA9 AD 1F D0		l2aa9	lda consol
  1238 2AAC 29 07			and #$07
  1239 2AAE C9 01			cmp #$01
  1240 2AB0 F0 F4			beq l2aa6
  1241 2AB2 E6 42			inc critic
  1242 2AB4 AD 04 03			lda dbuflo
  1243 2AB7 85 32			sta bufrlo
  1244 2AB9 AD 05 03			lda dbufhi
  1245 2ABC 85 33			sta bufrhi
  1246 2ABE AD 0A 03			lda daux1
  1247 2AC1 8D 3C 02			sta caux1
  1248 2AC4 AD 0B 03			lda daux2
  1249 2AC7 8D 3D 02			sta caux2
  1250 2ACA AD 02 03			lda dcomnd
  1251 2ACD C9 52			cmp #$52
  1252 2ACF F0 26			beq l2af7
  1253 2AD1 C9 53			cmp #$53
  1254 2AD3 F0 02			beq l2ad7
  1255 2AD5 D0 15			bne l2aec
  1256 2AD7 A0 03		l2ad7	ldy #$03
  1257 2AD9 A9 00			lda #$00
  1258 2ADB 91 32			sta (bufrlo),y
  1259 2ADD 88				dey
  1260 2ADE A9 20			lda #$20
  1261 2AE0 91 32			sta (bufrlo),y
  1262 2AE2 88				dey
  1263 2AE3 A9 FF			lda #$ff
  1264 2AE5 91 32			sta (bufrlo),y
  1265 2AE7 88				dey
  1266 2AE8 A9 10			lda #$10
  1267 2AEA 91 32			sta (bufrlo),y
  1268 2AEC A0 01		l2aec	ldy #$01
  1269 2AEE A9 00			lda #$00
  1270 2AF0 8C 03 03			sty dstats
  1271 2AF3 85 42			sta critic
  1272 2AF5 38				sec
  1273 2AF6 60				rts
  1274 2AF7 38			l2af7	sec
  1275 2AF8 AD 3C 02			lda caux1
  1276 2AFB E9 01			sbc #$01
  1277 2AFD 8D 3C 02			sta caux1
  1278 2B00 AD 3D 02			lda caux2
  1279 2B03 E9 00			sbc #$00
  1280 2B05 8D 3D 02			sta caux2
  1281 2B08 0E 3C 02			asl caux1
  1282 2B0B 2E 3D 02			rol caux2
  1283 2B0E 0E 3C 02			asl caux1
  1284 2B11 2E 3D 02			rol caux2
  1285 2B14 18				clc
  1286 2B15 A9 00			lda #$00
  1287 2B17 8D 03 03			sta dstats
  1288 2B1A 6D 3D 02			adc caux2
  1289 2B1D AA				tax
  1290 2B1E A9 00			lda #$00
  1291 2B20 85 34			sta bfenlo
  1292 2B22 4E 3C 02			lsr caux1
  1293 2B25 4E 3C 02			lsr caux1
  1294 2B28 4E 3C 02			lsr caux1
  1295 2B2B 66 34			ror bfenlo
  1296 2B2D 18				clc
  1297 2B2E AD 3C 02			lda caux1
  1298 2B31 69 A0			adc #$a0
  1299 2B33 85 35			sta bfenhi
  1300 2B35 D0 02			bne l2b39
  1301 2B37 90 B3		l2b37	bcc l2aec
  1302 2B39 A9 A0		l2b39	lda #$a0
  1303 2B3B 85 33			sta bufrhi
  1304 2B3D A9 00			lda #$00
  1305 2B3F 85 32			sta bufrlo
  1306 2B41 9D 00 D5			sta ld500,x
  1307 2B44 A0 00		l2b44	ldy #$00
  1308 2B46 51 32		l2b46	eor (bufrlo),y
  1309 2B48 C8				iny
  1310 2B49 D0 FB			bne l2b46
  1311 2B4B E6 33			inc bufrhi
  1312 2B4D A4 33			ldy bufrhi
  1313 2B4F C0 C0			cpy #$c0
  1314 2B51 D0 F1			bne l2b44
  1315 2B53 AC 3D 02			ldy caux2
  1316 2B56 D9 B5 2B			cmp l2bb5,y
  1317 2B59 D0 DE			bne l2b39
  1318 2B5B A9 C5			lda #$c5
  1319 2B5D 85 32			sta bufrlo
  1320 2B5F A9 2B			lda #$2b
  1321 2B61 85 33			sta bufrhi
  1322 2B63 A0 00			ldy #$00
  1323 2B65 B1 34		l2b65	lda (bfenlo),y
  1324 2B67 91 32			sta (bufrlo),y
  1325 2B69 C8				iny
  1326 2B6A 10 F9			bpl l2b65
  1327 2B6C 8D 10 D5		l2b6c	sta ld510
  1328 2B6F A9 00		L2B6f	lda #$00
  1329 2B71 F0 10			beq l2b83
  1330 2B73 AD 01 A0			lda la000+1
  1331 2B76 C9 CA			cmp #$ca
  1332 2B78 D0 F2			bne l2b6c
  1333 2B7A AD 02 A0			lda la000+2
  1334 2B7D C9 D0			cmp #$d0
  1335 2B7F D0 EB			bne l2b6c
  1336 2B81 F0 0E			beq l2b91
  1337 2B83 AD 00 A0		l2b83	lda la000
  1338 2B86 EE 00 A0			inc la000
  1339 2B89 CD 00 A0			cmp la000
  1340 2B8C F0 DE			beq l2b6c
  1341 2B8E 8D 00 A0			sta la000
  1342 2B91 AD 04 03		l2b91	lda dbuflo
  1343 2B94 85 34			sta bfenlo
  1344 2B96 AD 05 03			lda dbufhi
  1345 2B99 85 35			sta bfenhi
  1346 2B9B A0 00			ldy #$00
  1347 2B9D B1 32		l2b9d	lda (bufrlo),y
  1348 2B9F 91 34			sta (bfenlo),y
  1349 2BA1 C8				iny
  1350 2BA2 10 F9			bpl l2b9d
  1351 2BA4 A9 E0			lda #$e0
  1352 2BA6 8D 01 D2			sta audc1
  1353 2BA9 8D 03 D2			sta audc2
  1354 2BAC 8D 05 D2			sta audc3
  1355 2BAF 8D 07 D2			sta audc4
  1356 2BB2 18				clc
  1357 2BB3 90 82			bcc l2b37
  1358 					.endp
  1359 					
  1360 2BB5				.proc l2bb5
  1361 2BB5 A0 01			ldy #$01
  1362 2BB7 B1 84			lda (l0084),y
  1363 2BB9 78				sei
  1364 2BBA AA				tax
  1365 2BBB 20 58 37			jsr eor_l3758
  1366 2BBE A0 00			ldy #$00
  1367 2BC0 98				tya
  1368 2BC1 99 00 00		l2bc1	sta $0000,y
  1369 2BC4 C8				iny
  1370 2BC5 D0 FA			bne l2bc1
  1371 2BC7 4C 77 E4			jmp coldsv
  1372 					.endp
  1373
  1374
  1375 2BCA				.proc init_l2bca
  1376 2BCA A2 FF			ldx #$ff
  1377 2BCC 9A				txs
  1378 2BCD A9 80			lda #$80
  1379 2BCF 8D E4 02			sta ramsiz
  1380 2BD2 8D E6 02			sta memtop+1
  1381 2BD5 85 6A			sta ramtop
  1382 2BD7 85 05			sta ramlo+1
  1383 2BD9 A9 00			lda #$00
  1384 2BDB 20 1F 2F			jsr l2f1f
  1385 2BDE AD 30 02			lda sdlstl
  1386 2BE1 8D 18 01			sta l0118
  1387 2BE4 AD 31 02			lda sdlsth
  1388 2BE7 8D 19 01			sta l0119
  1389 2BEA A9 00			lda #$00
  1390 2BEC 8D 30 02			sta sdlstl
  1391 2BEF 8D 31 02			sta sdlsth
  1392 2BF2 A0 00			ldy #$00
  1393 2BF4 B9 20 00		l2bf4	lda ichidz,y
  1394 2BF7 99 00 01			sta l0100,y
  1395 2BFA A9 00			lda #$00
  1396 2BFC 99 20 00			sta ichidz,y
  1397 2BFF C8				iny
  1398 2C00 C0 18			cpy #$18
  1399 2C02 D0 F0			bne l2bf4
  1400 2C04 A0 00			ldy #$00
  1401 2C06 98				tya
  1402 2C07 99 00 D0		l2c07	sta hposp0,y
  1403 2C0A 99 00 D2			sta audf1,y
  1404 2C0D 99 00 D4			sta dmaclt,y
  1405 2C10 C8				iny
  1406 2C11 D0 F4			bne l2c07
  1407 2C13 78				sei
  1408 2C14 A9 00			lda #$00
  1409 2C16 85 10			sta pokmsk
  1410 2C18 8D 0E D2			sta irqen
  1411 2C1B 8D 0E D4			sta nmien
  1412 2C1E A0 01			ldy #$01
  1413 2C20 B1 84			lda (l0084),y
  1414 2C22 48				pha
  1415 2C23 AA				tax
  1416 2C24 20 58 37			jsr eor_l3758
  1417 2C27 A9 A0			lda #$a0
  1418 2C29 85 85			sta l0085
  1419 2C2B A9 80			lda #$80
  1420 2C2D 85 87			sta l0087
  1421 2C2F A9 00			lda #$00
  1422 2C31 85 84			sta l0084
  1423 2C33 85 86			sta l0086
  1424 2C35 A8				tay
  1425 2C36 B1 84		l2c36	lda (l0084),y
  1426 2C38 91 86			sta (l0086),y
  1427 2C3A C8				iny
  1428 2C3B D0 F9			bne l2c36
  1429 2C3D E6 85			inc l0085
  1430 2C3F E6 87			inc l0087
  1431 2C41 A5 85			lda l0085
  1432 2C43 C9 C0			cmp #$c0
  1433 2C45 D0 EF			bne l2c36
  1434 2C47 68				pla
  1435 2C48 AA				tax
  1436 2C49 E8				inx
  1437 2C4A 20 58 37			jsr eor_l3758
  1438 2C4D AD 13 D0			lda trig3
  1439 2C50 8D FA 03			sta gintlk
  1440 2C53 A9 00			lda #$00
  1441 2C55 85 09			sta boot
  1442 2C57 A9 01			lda #$01
  1443 2C59 8D F8 03			sta basicf
  1444 2C5C 85 42			sta critic
  1445 2C5E AA				tax
  1446 2C5F 18				clc
  1447 2C60 7D F0 BF		l2c60	adc lbff0,x
  1448 2C63 E8				inx
  1449 2C64 D0 FA			bne l2c60
  1450 2C66 8D EB 03			sta cartck
  1451 2C69 A0 00			ldy #$00
  1452 2C6B B9 79 2C		l2c6b	lda l2c79,y
  1453 2C6E 99 1A 01			sta l011a,y
  1454 2C71 C8				iny
  1455 2C72 C0 D1			cpy #$d1
  1456 2C74 D0 F5			bne l2c6b
  1457 2C76 4C 1A 01			jmp l011a
  1458 					.endp
  1459
  1460 2C79				.proc l2c79
  1461 2C79 A9 00			lda #$00
  1462 2C7B 85 84			sta l0084
  1463 2C7D A8				tay
  1464 2C7E AD FD BF			lda lbffd
  1465 2C81 29 80			and #$80
  1466 2C83 D0 04			bne l2c89
  1467 2C85 A9 10			lda #$10
  1468 2C87 D0 02			bne l2c8b
  1469 2C89 A9 02		l2c89	lda #$02
  1470 2C8B 85 85		l2c8b	sta l0085
  1471 2C8D A9 00			lda #$00
  1472 2C8F 91 84		l2c8f	sta (l0084),y
  1473 2C91 C8				iny
  1474 2C92 D0 FB			bne l2c8f
  1475 2C94 E6 85			inc l0085
  1476 2C96 A6 85			ldx l0085
  1477 2C98 E0 70			cpx #$70
  1478 2C9A D0 F3			bne l2c8f
  1479 2C9C AD 13 D0			lda trig3
  1480 2C9F 8D FA 03			sta gintlk
  1481 2CA2 AD FC BF			lda lbffc
  1482 2CA5 D0 22			bne l2cc9
  1483 2CA7 AD FD BF			lda lbffd
  1484 2CAA 10 1D			bpl l2cc9
  1485 2CAC A9 01			lda #$01
  1486 2CAE 8D 44 02			sta coldst
  1487 2CB1 A0 00			ldy #$00
  1488 2CB3 98				tya
  1489 2CB4 99 00 00		l2cb4	sta $0000,y
  1490 2CB7 C8				iny
  1491 2CB8 D0 FA			bne l2cb4
  1492 2CBA A9 00			lda #$00
  1493 2CBC 85 12			sta rtclok
  1494 2CBE 85 13			sta rtclok+1
  1495 2CC0 85 14			sta rtclok+2
  1496 2CC2 AD FD BF			lda lbffd
  1497 2CC5 58				cli
  1498 2CC6 6C FE BF			jmp (lbffe)
  1499
  1500 2CC9 A9 FF		l2cc9	lda #$ff
  1501 2CCB 8D 44 02			sta coldst
  1502 2CCE A9 40			lda #$40
  1503 2CD0 8D 0E D4			sta nmien
  1504 2CD3 A0 82			ldy #$82
  1505 2CD5 A9 00			lda #$00
  1506 2CD7 85 42			sta critic
  1507 2CD9 99 00 00		l2cd9	sta $0000,y
  1508 2CDC C8				iny
  1509 2CDD D0 FA			bne l2cd9
  1510 2CDF 20 5B 01			jsr l015b
  1511 2CE2 78				sei
  1512 2CE3 A9 00			lda #$00
  1513 2CE5 8D 44 02			sta coldst
  1514 2CE8 AD 18 01			lda l0118
  1515 2CEB 8D 30 02			sta sdlstl
  1516 2CEE 8D 02 D4			sta dlistl
  1517 2CF1 AD 19 01			lda l0119
  1518 2CF4 8D 31 02			sta sdlsth
  1519 2CF7 8D 03 D4			sta dlisth
  1520 2CFA A0 00			ldy #$00
  1521 2CFC B9 00 01		l2cfc	lda l0100,y
  1522 2CFF 99 20 00			sta ichidz,y
  1523 2D02 C8				iny
  1524 2D03 C0 18			cpy #$18
  1525 2D05 D0 F5			bne l2cfc
  1526 2D07 A2 22			ldx #$22
  1527 2D09 8E 2F 02			stx sdmctl
  1528 2D0C 8E 00 D4			stx dmaclt
  1529 2D0F E8				inx
  1530 2D10 8E 32 02			stx sskctl
  1531 2D13 8E 0F D2			stx skctl
  1532 2D16 A9 02			lda #$02
  1533 2D18 8D F3 02			sta chact
  1534 2D1B 8D 01 D4			sta chactl
  1535 2D1E A9 E0			lda #$e0
  1536 2D20 8D F4 02			sta chbas
  1537 2D23 8D 09 D4			sta chbase
  1538 2D26 A9 28			lda #$28
  1539 2D28 8D 08 D2			sta audctl
  1540 2D2B A2 00			ldx #$00
  1541 2D2D BD E7 01		l2d2d	lda l01e7,x
  1542 2D30 9D C4 02			sta color0,x
  1543 2D33 9D 16 D0			sta colpf0,x
  1544 2D36 E8				inx
  1545 2D37 E0 04			cpx #$04
  1546 2D39 D0 F2			bne l2d2d
  1547 2D3B A9 C0			lda #$c0
  1548 2D3D 85 10			sta pokmsk
  1549 2D3F 8D 0E D2			sta irqen
  1550 2D42 58				cli
  1551 2D43 6C FA BF			jmp (lbffa)
  1552 2D46 28				plp
  1553 2D47 CA				dex
  1554 2D48 94 46			sty fmszpg+3,x
  1555 					.endp
  1556
  1557 2D4A				.proc init_l2d4a
  1558 2D4A A2 FF			ldx #$ff
  1559 2D4C 9A				txs
  1560 2D4D 78				sei
  1561 2D4E 8E 0E D4			stx nmien
  1562 2D51 A9 A0			lda #$a0
  1563 2D53 8D E4 02			sta ramsiz
  1564 2D56 8D E6 02			sta memtop+1
  1565 2D59 85 6A			sta ramtop
  1566 2D5B 85 05			sta ramlo+1
  1567 2D5D A2 00			ldx #$00
  1568 2D5F 8E 44 02			stx coldst
  1569 2D62 86 42			stx critic
  1570 2D64 AD 9B 13			lda l139b
  1571 2D67 8D 69 2E			sta l2e68+1
  1572 2D6A 8A				txa
  1573 2D6B 20 68 2E			jsr l2e68
  1574 2D6E 8A				txa
  1575 2D6F 20 1F 2F			jsr l2f1f
  1576 2D72 A9 C0			lda #$c0
  1577 2D74 8D E4 02			sta ramsiz
  1578 2D77 8D E6 02			sta memtop+1
  1579 2D7A 85 6A			sta ramtop
  1580 2D7C 85 05			sta ramlo+1
  1581 2D7E A0 00			ldy #$00
  1582 2D80 B1 84			lda (l0084),y
  1583 2D82 29 01			and #$01
  1584 2D84 85 3B			sta chksnt
  1585 2D86 A0 02			ldy #$02
  1586 2D88 B1 84			lda (l0084),y
  1587 2D8A 85 32			sta bufrlo
  1588 2D8C C8				iny
  1589 2D8D B1 84			lda (l0084),y
  1590 2D8F 18				clc
  1591 2D90 69 A0			adc #$a0
  1592 2D92 85 33			sta bufrhi
  1593 2D94 A0 01			ldy #$01
  1594 2D96 B1 84			lda (l0084),y
  1595 2D98 A8				tay
  1596 2D99 85 38			sta bufrfl
  1597 2D9B A9 00			lda #$00
  1598 2D9D 85 39			sta recvdn
  1599 2D9F A2 00			ldx #$00
  1600 2DA1 8A				txa
  1601 2DA2 95 80		l2da2	sta lomem,x
  1602 2DA4 9D 80 01			sta l0180,x
  1603 2DA7 E8				inx
  1604 2DA8 E0 80			cpx #$80
  1605 2DAA D0 F6			bne l2da2
  1606 2DAC A9 10			lda #$10
  1607 2DAE 20 DF 2D			jsr l2ddf
  1608 2DB1 20 F0 2D			jsr l2df0
  1609 2DB4 20 FE 2D			jsr l2dfe
  1610 2DB7 A6 38			ldx bufrfl
  1611 2DB9 20 58 37			jsr eor_l3758
  1612 2DBC AD 13 D0			lda trig3
  1613 2DBF 8D FA 03			sta gintlk
  1614 2DC2 A2 00			ldx #$00
  1615 2DC4 BD 00 A0		l2dc4	lda la000,x
  1616 2DC7 9D C0 03			sta prnbuf,x
  1617 2DCA A9 00			lda #$00
  1618 2DCC E8				inx
  1619 2DCD E0 10			cpx #$10
  1620 2DCF D0 F3			bne l2dc4
  1621 2DD1 86 30			stx status
  1622 2DD3 A9 10			lda #$10
  1623 2DD5 85 35			sta bfenhi
  1624 2DD7 A9 00			lda #$00
  1625 2DD9 85 34			sta bfenlo
  1626 2DDB A8				tay
  1627 2DDC 4C 00 01			jmp l0100
  1628 					.endp
  1629
  1630 2DDF				.proc l2ddf
  1631 2DDF 85 34			sta bfenlo
  1632 2DE1 A2 00			ldx #$00
  1633 2DE3 B9 D8 36		l2de3	lda l36d8,y
  1634 2DE6 9D D0 03			sta prnbuf+16,x
  1635 2DE9 C8				iny
  1636 2DEA E8				inx
  1637 2DEB E4 34			cpx bfenlo
  1638 2DED D0 F4			bne l2de3
  1639 2DEF 60				rts
  1640 					.endp
  1641
  1642 2DF0				.proc l2df0
  1643 2DF0 A2 00			ldx #$00
  1644 2DF2 BD EF 2E		l2df2	lda l2eef,x
  1645 2DF5 9D 88 02			sta hibyte,x
  1646 2DF8 E8				inx
  1647 2DF9 E0 30			cpx #$30
  1648 2DFB D0 F5			bne l2df2
  1649 2DFD 60				rts
  1650 					.endp
  1651
  1652 2DFE				.proc l2dfe
  1653 2DFE A2 00			ldx #$00
  1654 2E00 BD 0C 2E		l2e00	lda l2e0c,x
  1655 2E03 9D 00 01			sta l0100,x
  1656 2E06 E8				inx
  1657 2E07 E0 E3			cpx #$e3
  1658 2E09 D0 F5			bne l2e00
  1659 2E0B 60				rts
  1660 					.endp
  1661
  1662 2E0C				.proc l2e0c
  1663 2E0C 91 34			sta (bfenlo),y
  1664 2E0E C8				iny
  1665 2E0F D0 FB			bne l2e0c
  1666 2E11 E6 35			inc bfenhi
  1667 2E13 A6 35			ldx bfenhi
  1668 2E15 E0 50			cpx #$50
  1669 2E17 D0 F3			bne l2e0c
  1670 2E19 20 94 01		l2e19	jsr l0194
  1671 2E1C 85 34			sta bfenlo
  1672 2E1E 20 94 01			jsr l0194
  1673 2E21 85 35			sta bfenhi
  1674 2E23 20 94 01			jsr l0194
  1675 2E26 85 36			sta ltemp
  1676 2E28 20 94 01			jsr l0194
  1677 2E2B 85 37			sta ltemp+1
  1678 2E2D 05 36			ora ltemp
  1679 2E2F F0 55			beq l2e86
  1680 2E31 A9 00			lda #$00
  1681 2E33 8D E2 02			sta initad
  1682 2E36 8D E3 02			sta initad+1
  1683 2E39 20 94 01		l2e39	jsr l0194
  1684 2E3C 20 88 02			jsr hibyte
  1685 2E3F C6 36			dec ltemp
  1686 2E41 A5 36			lda ltemp
  1687 2E43 C9 FF			cmp #$ff
  1688 2E45 D0 02			bne l2e49
  1689 2E47 C6 37			dec ltemp+1
  1690 2E49 A5 36		l2e49	lda ltemp
  1691 2E4B 05 37			ora ltemp+1
  1692 2E4D D0 EA			bne l2e39
  1693 2E4F AD E2 02			lda initad
  1694 2E52 0D E3 02			ora initad+1
  1695 2E55 F0 C2			beq l2e19
  1696 2E57 20 5C 01			jsr l015c
  1697 2E5A 58				cli
  1698 2E5B 20 59 01			jsr l0159
  1699 2E5E 78				sei
  1700 2E5F 20 9B 02			jsr txtold+5
  1701 2E62 18				clc
  1702 2E63 90 B4			bcc l2e19
  1703 2E65 6C E2 02			jmp (initad)
  1704 					.endp
  1705
  1706 2E68				.proc l2e68
  1707 2E68 8D 80 D5			sta ld580
  1708 2E6B AD 13 D0			lda trig3
  1709 2E6E D0 F8			bne l2e68
  1710 2E70 8D FA 03			sta gintlk
  1711 2E73 AD 00 A0			lda la000
  1712 2E76 EE 00 A0			inc la000
  1713 2E79 CD 00 A0			cmp la000
  1714 2E7C F0 EA			beq l2e68
  1715 2E7E 8D 00 A0			sta la000
  1716 2E81 A9 00			lda #$00
  1717 2E83 85 30			sta status
  1718 2E85 60				rts
  1719 					.endp
  1720 					
  1721 2E86				.proc l2e86
  1722 2E86 20 5C 01			jsr l015c
  1723 2E89 58				cli
  1724 2E8A A0 00			ldy #$00
  1725 2E8C A5 3B			lda chksnt
  1726 2E8E D0 0D			bne l2e9d
  1727 2E90 AD E0 02			lda runad
  1728 2E93 85 0A			sta dosvec
  1729 2E95 AD E1 02			lda runad+1
  1730 2E98 85 0B			sta dosvec+1
  1731 2E9A 4C 74 E4			jmp warmsv
  1732 					.endp
  1733
  1734 2E9D 6C E0 02		l2e9d	jmp (runad)
  1735
  1736 2EA0				.proc l2ea0
  1737 2EA0 A2 00			ldx #$00
  1738 2EA2 A1 32			lda (bufrlo,x)
  1739 2EA4 AA				tax
  1740 2EA5 E6 32			inc bufrlo
  1741 2EA7 D0 44			bne l2eed
  1742 2EA9 E6 33			inc bufrhi
  1743 2EAB A5 33			lda bufrhi
  1744 2EAD C9 C0			cmp #$c0
  1745 2EAF D0 3C			bne l2eed
  1746 2EB1 E6 38			inc bufrfl
  1747 2EB3 E6 39			inc recvdn
  1748 2EB5 86 3A			stx xmtdon
  1749 2EB7 A6 38			ldx bufrfl
  1750 2EB9 9D 00 D5		l2eb9	sta ld500,x
  1751 2EBC A9 A0			lda #$a0
  1752 2EBE 85 33			sta bufrhi
  1753 2EC0 A9 00			lda #$00
  1754 2EC2 85 32			sta bufrlo
  1755 2EC4 A0 00		l2ec4	ldy #$00
  1756 2EC6 51 32		l2ec6	eor (bufrlo),y
  1757 2EC8 C8				iny
  1758 2EC9 D0 FB			bne l2ec6
  1759 2ECB E6 33			inc bufrhi
  1760 2ECD A4 33			ldy bufrhi
  1761 2ECF C0 C0			cpy #$c0
  1762 2ED1 D0 F1			bne l2ec4
  1763 2ED3 A4 39			ldy recvdn
  1764 2ED5 D9 D0 03			cmp prnbuf+16,y
  1765 2ED8 D0 DF			bne l2eb9
  1766 2EDA A9 A0			lda #$a0
  1767 2EDC 85 33			sta bufrhi
  1768 2EDE A2 00			ldx #$00
  1769 2EE0 BD 00 A0		l2ee0	lda la000,x
  1770 2EE3 9D C0 03			sta prnbuf,x
  1771 2EE6 E8				inx
  1772 2EE7 E0 10			cpx #$10
  1773 2EE9 D0 F5			bne l2ee0
  1774 2EEB A6 3A			ldx xmtdon
  1775 2EED 8A			l2eed	txa
  1776 2EEE 60				rts
  1777 					.endp
  1778
  1779 2EEF A6 35		l2eef	ldx bfenhi
  1780 2EF1 E0 A0			cpx #$a0
  1781 2EF3 90 05			bcc l2efa
  1782 2EF5 AA				tax
  1783 2EF6 20 5C 01			jsr l015c
  1784 2EF9 8A				txa
  1785 2EFA A2 00		l2efa	ldx #$00
  1786 2EFC 81 34			sta (bfenlo,x)
  1787 2EFE A6 30			ldx status
  1788 2F00 D0 16			bne l2f18
  1789 2F02 A6 38		l2f02	ldx bufrfl
  1790 2F04 9D 00 D5			sta ld500,x
  1791 2F07 A2 00			ldx #$00
  1792 2F09 BD 00 A0		l2f09	lda la000,x
  1793 2F0C DD C0 03			cmp prnbuf,x
  1794 2F0F D0 F1			bne l2f02
  1795 2F11 E8				inx
  1796 2F12 E0 10			cpx #$10
  1797 2F14 D0 F3			bne l2f09
  1798 2F16 86 30			stx status
  1799 2F18 E6 34		l2f18	inc bfenlo
  1800 2F1A D0 02			bne l2f1e
  1801 2F1C E6 35			inc bfenhi
  1802 2F1E 60			l2f1e	rts
  1803
  1804 2F1F				.proc l2f1f
  1805 2F1F 48				pha
  1806 2F20 A2 60			ldx #$60
  1807 2F22 A9 0C			lda #$0c
  1808 2F24 9D 42 03			sta iocb0+iccom,x
  1809 2F27 20 56 E4			jsr ciov
  1810 2F2A A2 00			ldx #$00
  1811 2F2C A9 0C			lda #$0c
  1812 2F2E 9D 42 03			sta iocb0+iccom,x
  1813 2F31 20 56 E4			jsr ciov
  1814 2F34 A2 00			ldx #$00
  1815 2F36 A9 03			lda #$03
  1816 2F38 9D 42 03			sta iocb0+iccom,x
  1817 2F3B A9 77			lda #$77
  1818 2F3D 9D 44 03			sta iocb0+icbal,x
  1819 2F40 A9 2F			lda #$2f
  1820 2F42 9D 45 03			sta iocb0+icbah,x
  1821 2F45 A9 0C			lda #$0c
  1822 2F47 9D 4A 03			sta iocb0+icax1,x
  1823 2F4A A9 00			lda #$00
  1824 2F4C 9D 4B 03			sta iocb0+icax2,x
  1825 2F4F 20 56 E4			jsr ciov
  1826 2F52 A2 60			ldx #$60
  1827 2F54 A9 03			lda #$03
  1828 2F56 9D 42 03			sta iocb0+iccom,x
  1829 2F59 A9 73			lda #$73
  1830 2F5B 9D 44 03			sta iocb0+icbal,x
  1831 2F5E A9 2F			lda #$2f
  1832 2F60 9D 45 03			sta iocb0+icbah,x
  1833 2F63 68				pla
  1834 2F64 9D 4B 03			sta iocb0+icax2,x
  1835 2F67 29 F0			and #$f0
  1836 2F69 49 10			eor #$10
  1837 2F6B 09 0C			ora #$0c
  1838 2F6D 9D 4A 03			sta iocb0+icax1,x
  1839 2F70 4C 56 E4			jmp ciov
  1840 2F73 53 3A			.byte 'S:'
  1841 2F75 9B 00			.byte $9b,$00
  1842 2F77 45 3A			.byte 'E:'
  1843 2F79 9B 00			.byte $9b,$00
  1844 					.endp
  1845
  1846 2F7B				.proc get_stick_l2f7b
  1847 2F7B AD 10 D0			lda trig0
  1848 2F7E D0 1A			bne l2f9a
  1849 2F80 AD 10 D0		l2f80	lda trig0
  1850 2F83 F0 FB			beq l2f80
  1851 2F85 20 C4 35			jsr get_byte_l35c4
  1852 2F88 C9 FF			cmp #$ff
  1853 2F8A F0 0E			beq l2f9a
  1854 2F8C C9 00			cmp #$00
  1855 2F8E D0 05			bne l2f95
  1856 2F90 20 E5 34			jsr l34e5
  1857 2F93 18				clc
  1858 2F94 60				rts
  1859
  1860 2F95 20 98 35		l2f95	jsr l3598
  1861 2F98 38				sec
  1862 2F99 60				rts
  1863
  1864 2F9A AD 00 D3		l2f9a	lda porta
  1865 2F9D 29 04			and #$04
  1866 2F9F D0 05			bne l2fa6
  1867 2FA1 20 0F 35			jsr l350f
  1868 2FA4 18				clc
  1869 2FA5 60				rts
  1870
  1871 2FA6 AD 00 D3		l2fa6	lda porta
  1872 2FA9 29 08			and #$08
  1873 2FAB D0 10			bne l2fbd
  1874 2FAD 20 C4 35			jsr get_byte_l35c4
  1875 2FB0 C9 FF			cmp #$ff
  1876 2FB2 F0 07			beq l2fbb
  1877 2FB4 C9 00			cmp #$00
  1878 2FB6 D0 03			bne l2fbb
  1879 2FB8 20 E5 34			jsr l34e5
  1880 2FBB 18			l2fbb	clc
  1881 2FBC 60				rts
  1882
  1883 2FBD AD 00 D3		l2fbd	lda porta
  1884 2FC0 29 01			and #$01
  1885 2FC2 D0 20			bne l2fe4
  1886 2FC4 20 38 35			jsr cursor_up_l3538
  1887 2FC7 A0 80			ldy #$80
  1888 2FC9 20 8F 35			jsr l358f
  1889 2FCC AD 00 D3			lda porta
  1890 2FCF 29 01			and #$01
  1891 2FD1 D0 E8			bne l2fbb
  1892 2FD3 20 38 35		l2fd3	jsr cursor_up_l3538
  1893 2FD6 A0 D0			ldy #$d0
  1894 2FD8 20 8F 35			jsr l358f
  1895 2FDB AD 00 D3			lda porta
  1896 2FDE 29 01			and #$01
  1897 2FE0 F0 F1			beq l2fd3
  1898 2FE2 D0 D7			bne l2fbb
  1899 2FE4 AD 00 D3		l2fe4	lda porta
  1900 2FE7 29 02			and #$02
  1901 2FE9 D0 1E			bne l3009
  1902 2FEB 20 63 35			jsr cursor_down_l3563
  1903 2FEE A0 80			ldy #$80
  1904 2FF0 20 8F 35			jsr l358f
  1905 2FF3 AD 00 D3			lda porta
  1906 2FF6 29 02			and #$02
  1907 2FF8 D0 0F			bne l3009
  1908 2FFA 20 63 35		l2ffa	jsr cursor_down_l3563
  1909 2FFD A0 D0			ldy #$d0
  1910 2FFF 20 8F 35			jsr l358f
  1911 3002 AD 00 D3			lda porta
  1912 3005 29 02			and #$02
  1913 3007 F0 F1			beq l2ffa
  1914 3009 18			l3009	clc
  1915 300A 60				rts
  1916 					.endp
  1917
  1918 300B				.proc get_key_l300b
  1919 300B AD FC 02			lda ch
  1920 300E C9 FF			cmp #$ff
  1921 3010 D0 02			bne l3014
  1922 3012 18				clc
  1923 3013 60				rts
  1924 3014 A0 FF		l3014	ldy #$ff
  1925 3016 8C FC 02			sty ch
  1926
  1927 3019 C9 1C			cmp #$1c	;ESC
  1928 301B D0 05			bne l3022
  1929 301D 20 0F 35			jsr l350f
  1930 3020 18			l3020	clc
  1931 3021 60				rts
  1932
  1933 3022 C9 0C		l3022	cmp #$0c	;RETURN
  1934 3024 D0 15			bne l303b
  1935 3026 20 C4 35			jsr get_byte_l35c4
  1936 3029 C9 FF			cmp #$ff
  1937 302B F0 F3			beq l3020
  1938 302D C9 00			cmp #$00
  1939 302F D0 05			bne l3036
  1940 3031 20 E5 34			jsr l34e5
  1941 3034 18				clc
  1942 3035 60				rts
  1943
  1944 3036 20 98 35		l3036	jsr l3598
  1945 3039 38				sec
  1946 303A 60				rts
  1947
  1948 303B C9 0E		l303b	cmp #$0e
  1949 303D D0 05			bne l3044
  1950 303F 20 38 35			jsr cursor_up_l3538
  1951 3042 18				clc
  1952 3043 60				rts
  1953
  1954 3044 C9 0F		l3044	cmp #$0f
  1955 3046 D0 03			bne l304b
  1956 3048 20 63 35			jsr cursor_down_l3563
  1957 304B 18			l304b	clc
  1958 304C 60				rts
  1959 					.endp
  1960
  1961 304D				.proc init_screen_l304d
  1962 304D A9 C0			lda #$c0
  1963 304F 8D E4 02			sta ramsiz
  1964 3052 EE F8 03			inc basicf
  1965 3055 A9 00			lda #$00
  1966 3057 85 08			sta warmst
  1967 3059 8D 44 02			sta coldst
  1968 305C 8D 00 D3			sta porta
  1969 305F AD 04 F1			lda os.lf104
  1970 3062 C9 4D			cmp #$4d
  1971 3064 F0 05			beq l306b
  1972 3066 A9 FF			lda #$ff
  1973 3068 8D 01 D3			sta portb
  1974
  1975 306B A9 3C		l306b	lda #$3c
  1976 306D 8D 02 D3			sta pactl
  1977 3070 8D 03 D3			sta pbctl
  1978 3073 AD 01 D3			lda portb
  1979 3076 AD 00 D3			lda porta
  1980 3079 A9 23			lda #$23
  1981 307B 8D 0F D2			sta skctl
  1982 307E A9 A0			lda #$a0
  1983 3080 8D 05 D2			sta audc3
  1984 3083 8D 07 D2			sta audc4
  1985 3086 A9 28			lda #$28
  1986 3088 8D 08 D2			sta audctl
  1987 308B A9 FF			lda #$ff
  1988 308D 8D 0D D2			sta serout
  1989 3090 A9 C0			lda #$c0
  1990 3092 85 10			sta pokmsk
  1991 3094 8D 0E D2			sta irqen
  1992 3097 A9 7F			lda #$7f
  1993 3099 8D 0E D4			sta nmien
  1994 309C A9 E0			lda #$e0
  1995 309E 8D F4 02			sta chbas
  1996 30A1 8D 09 D4			sta chbase
  1997 30A4 A9 02			lda #$02
  1998 30A6 8D F3 02			sta chact
  1999 30A9 8D 01 D4			sta chactl
  2000 30AC A9 5C			lda #$5c
  2001 30AE 8D 3D 03			sta pupbt1
  2002 30B1 A9 93			lda #$93
  2003 30B3 8D 3E 03			sta pupbt2
  2004 30B6 A9 25			lda #$25
  2005 30B8 8D 3F 03			sta pupbt3
  2006 30BB A9 FF			lda #$ff
  2007 30BD 8D FC 02			sta ch
  2008 30C0 60				rts
  2009 					.endp
  2010
  2011 30C1				.proc init_colors_l30c1
  2012 30C1 A9 FF			lda #$ff
  2013 30C3 8D C0 02			sta pcolr0
  2014 30C6 8D C1 02			sta pcolr1
  2015 30C9 8D C2 02			sta pcolr2
  2016 30CC 8D C3 02			sta pcolr3
  2017 30CF A9 0C			lda #$0c
  2018 30D1 8D C4 02			sta color0
  2019 30D4 8D C5 02			sta color1
  2020 30D7 8D 16 D0			sta colpf0
  2021 30DA 8D 17 D0			sta colpf1
  2022 30DD A9 00			lda #$00
  2023 30DF 8D C6 02			sta color2
  2024 30E2 8D C7 02			sta color3
  2025 30E5 8D C8 02			sta color4
  2026 30E8 8D 18 D0			sta colpf2
  2027 30EB 8D 19 D0			sta colpf3
  2028 30EE 8D 1A D0			sta colbk
  2029 30F1 60				rts
  2030 					.endp
  2031
  2032 30F2				.proc clear_screen_l30f2
  2033 30F2 A9 00			lda #$00
  2034 30F4 85 FE			sta l00fe
  2035 30F6 A9 10			lda #$10
  2036 30F8 85 FF			sta l00ff
  2037 30FA A9 00			lda #$00
  2038 30FC A8				tay
  2039 30FD A2 03			ldx #$03
  2040 30FF F0 0A			beq l310b
  2041 3101 91 FE		l3101	sta (l00fe),y
  2042 3103 C8				iny
  2043 3104 D0 FB			bne l3101
  2044 3106 E6 FF			inc l00ff
  2045 3108 CA				dex
  2046 3109 D0 F6			bne l3101
  2047 310B C0 AA		l310b	cpy #$aa
  2048 310D F0 05			beq l3114
  2049 310F 91 FE			sta (l00fe),y
  2050 3111 C8				iny
  2051 3112 D0 F7			bne l310b
  2052 3114 60			l3114	rts
  2053 					.endp
  2054
  2055 3115				.proc main_loop_l3115
  2056 3115 20 4D 30			jsr init_screen_l304d
  2057 3118 20 C1 30			jsr init_colors_l30c1
  2058 311B 20 F2 30			jsr clear_screen_l30f2
  2059 311E 20 C0 31			jsr init_menu_l31c0	;Autorun?
  2060 3121 B0 10			bcs start
  2061 3123 20 A8 33			jsr set_menu_ptr_l33a88
  2062 3126 20 7B 2F		loop	jsr get_stick_l2f7b
  2063 3129 B0 08			bcs start		;Trigger pressed?
  2064 312B 20 0B 30			jsr get_key_l300b
  2065 312E B0 03			bcs start		;Enter pressed?
  2066 3130 4C 26 31			jmp loop
  2067
  2068 3133 20 DE 35		start	jsr start_entry_l35de	;Pressed
  2069 3136 4C 15 31			jmp main_loop_l3115
  2070 					.endp
  2071
  2072 3139				.local dl_l3139
  2073 3139 70				.byte aempty8
  2074 313A 70				.byte aempty8
  2075 313B 70				.byte aempty8
  2076 313C 47				.byte alms+$07
  2077 313D 00 10			.word l1000
  2078 313F 30				.byte aempty4
  2079 3140 42			l3140	.byte alms+$02
  2080 3141 28 10			.word l1028
  2081 3143 42				.byte alms+$02
  2082 3144 50 10			.word l1050
  2083 3146 42				.byte alms+$02
  2084 3147 78 10			.word l1078
  2085 3149 42				.byte alms+$02
  2086 314A A0 10			.word l10a0
  2087 314C 42				.byte alms+$02
  2088 314D C8 10			.word l10c8
  2089 314F 42				.byte alms+$02
  2090 3150 F0 10			.word l10f0
  2091 3152 42				.byte alms+$02
  2092 3153 18 11			.word l1118
  2093 3155 42				.byte alms+$02
  2094 3156 40 11			.word l1140
  2095 3158 42				.byte alms+$02
  2096 3159 68 11			.word l1168
  2097 315B 42				.byte alms+$02
  2098 315C 90 11			.word l1190
  2099 315E 42				.byte alms+$02
  2100 315F B8 11			.word l11b8
  2101 3161 42				.byte alms+$02
  2102 3162 E0 11			.word l11e0
  2103 3164 42				.byte alms+$02
  2104 3165 08 12			.word l1208
  2105 3167 42				.byte alms+$02
  2106 3168 30 12			.word l1230
  2107 316A 42				.byte alms+$02
  2108 316B 58 12			.word l1258
  2109 316D 42				.byte alms+$02
  2110 316E 80 12			.word l1280
  2111 3170 42				.byte alms+$02
  2112 3171 A8 12			.word l12a8
  2113 3173 42				.byte alms+$02
  2114 3174 D0 12			.word l12d0
  2115 3176 42				.byte alms+$02
  2116 3177 F8 12			.word l12f8
  2117 3179 42				.byte alms+$02
  2118 317A 20 13			.word l1320
  2119 317C 30				.byte aempty4
  2120 317D 42				.byte alms+$02
  2121 317E 70 13			.word l1370
  2122 3180 41				.byte avb+ajmp
  2123 3181 39 31			.word dl_l3139
  2124 					.endl
  2125
  2126 3183 80 80 B3 E3 F2 EF + text_l3183	.byte $80,$80,$b3,$e3,$f2,$ef,$ec,$ec,$80,$e4,$ef,$f7,$ee,$80,$e6,$ef
  2127 3193 F2 80 ED EF F2 E5 + 	.byte $f2,$80,$ed,$ef,$f2,$e5,$80,$f4,$e9,$f4,$ec,$e5,$f3,$80,$80,$80
  2128 31A3 80 80 80 80 80 80 + 	.byte $80,$80,$80,$80,$80,$80,$80,$80
  2129 31AB 00 03 06 09 0C 0F + l31ab	.byte $00,$03,$06,$09,$0c,$0f,$12,$15,$18,$1b,$1e,$21,$24,$27,$2a,$2d
  2130 31BB 30 33 36 39 3C		.byte $30,$33,$36,$39,$3c
  2131
  2132 31C0				.proc init_menu_l31c0		;OUT: <C>=0/1 for autorun
  2133 31C0 AD F7 3F			lda l3ff7
  2134 31C3 85 88			sta l0088
  2135 31C5 AD F8 3F			lda l3ff7+1
  2136 31C8 85 89			sta l0089
  2137
  2138 31CA A0 00			ldy #$00
  2139 31CC 8C 98 13			sty l1398
  2140 31CF 8C 9F 13			sty selected_entry_l139f
  2141 31D2 A2 00			ldx #$00
  2142 31D4 B1 88			lda (l0088),y
  2143 31D6 8D 9A 13			sta l139a
  2144 31D9 29 C0			and #$c0
  2145 31DB F0 06			beq l31e3
  2146 31DD A9 7F			lda #$7f
  2147 31DF A2 80			ldx #$80
  2148 31E1 D0 0F			bne l31f2
  2149 31E3 AD 9A 13		l31e3	lda l139a
  2150 31E6 29 20			and #$20
  2151 31E8 D0 04			bne l31ee
  2152 31EA A2 10			ldx #$10
  2153 31EC D0 04			bne l31f2
  2154 31EE A9 24		l31ee	lda #$24
  2155 31F0 A2 30			ldx #$30
  2156 31F2 8D 99 13		l31f2	sta l1399
  2157 31F5 8E 9B 13			stx l139b
  2158
  2159 31F8 18				clc
  2160 31F9 A5 88			lda l0088
  2161 31FB 69 01			adc #$01
  2162 31FD 85 88			sta l0088
  2163 31FF A5 89			lda l0089
  2164 3201 69 00			adc #$00
  2165 3203 85 89			sta l0089
  2166
  2167 3205 AD 04 F1			lda os.lf104
  2168 3208 C9 4D			cmp #$4d		;"M"
  2169 320A D0 2B			bne return_clc
  2170 320C AD 14 F1			lda os.lf114
  2171 320F C9 52			cmp #$52		;"R"
  2172 3211 D0 24			bne return_clc
  2173 3213 AD 15 F1			lda os.lf115
  2174 3216 C9 9B			cmp #$9b		;RETURN
  2175 3218 D0 1D			bne return_clc
  2176
  2177 321A AD 16 F1			lda os.lf116
  2178 321D 8D A0 13			sta menu_ptr_l13a0
  2179 3220 AD 17 F1			lda os.lf117
  2180 3223 8D A1 13			sta menu_ptr_l13a0+1
  2181 3226 A9 4F			lda #$4f		;"O"
  2182 3228 8D 15 F1			sta os.lf115
  2183 322B A9 52			lda #$52		;"R"
  2184 322D 8D 16 F1			sta os.lf116
  2185 3230 A9 9B			lda #$9b		;RETURN
  2186 3232 8D 17 F1			sta os.lf117
  2187 3235 38				sec
  2188 3236 60				rts
  2189
  2190 3237			return_clc
  2191 3237 18				clc
  2192 3238 60				rts
  2193 					.endp
  2194
  2195 3239				.proc l3239
  2196 3239 AC 9C 13			ldy l139c
  2197 323C B9 AB 31			lda l31ab,y
  2198 323F A8				tay
  2199 3240 8A				txa
  2200 3241 99 40 31			sta dl_l3139.l3140,y
  2201 3244 60				rts
  2202 					.endp
  2203
  2204 3245				.proc add40_l3245
  2205 3245 18				clc
  2206 3246 A5 86			lda l0086
  2207 3248 69 28			adc #$28
  2208 324A 85 86			sta l0086
  2209 324C A5 87			lda l0087
  2210 324E 69 00			adc #$00
  2211 3250 85 87			sta l0087
  2212 3252 60				rts
  2213 					.endp
  2214
  2215 3253				.proc l3253
  2216 3253 AD A4 13			lda l13a4
  2217 3256 F0 19			beq l3271
  2218 3258 A0 00			ldy #$00
  2219 325A 98				tya
  2220 325B 91 86		l325b	sta (l0086),y
  2221 325D C8				iny
  2222 325E CC A4 13			cpy l13a4
  2223 3261 D0 F8			bne l325b
  2224 3263 18				clc
  2225 3264 A5 86			lda l0086
  2226 3266 6D A4 13			adc l13a4
  2227 3269 85 86			sta l0086
  2228 326B A5 87			lda l0087
  2229 326D 69 00			adc #$00
  2230 326F 85 87			sta l0087
  2231
  2232 3271 A0 00		l3271	ldy #$00
  2233 3273 AD A3 13			lda l13a3
  2234 3276 91 86			sta (l0086),y
  2235 3278 C8				iny
  2236 3279 B1 84		l3279	lda (l0084),y
  2237 327B C9 9B			cmp #$9b
  2238 327D F0 0A			beq l3289
  2239 327F 0D A2 13			ora l13a2
  2240 3282 91 86			sta (l0086),y
  2241 3284 C8				iny
  2242 3285 C0 28			cpy #$28
  2243 3287 D0 F0			bne l3279
  2244 3289 C8			l3289	iny
  2245 328A 98				tya
  2246 328B 88				dey
  2247 328C 18				clc
  2248 328D 65 84			adc l0084
  2249 328F 85 84			sta l0084
  2250 3291 A9 00			lda #$00
  2251 3293 65 85			adc l0085
  2252 3295 85 85			sta l0085
  2253 3297 AD A2 13			lda l13a2
  2254 329A 91 86		l329a	sta (l0086),y
  2255 329C C8				iny
  2256 329D C0 28			cpy #$28
  2257 329F D0 F9			bne l329a
  2258 32A1 20 45 32			jsr add40_l3245
  2259 32A4 38				sec
  2260 32A5 A5 86			lda l0086
  2261 32A7 ED A4 13			sbc l13a4
  2262 32AA 85 86			sta l0086
  2263 32AC A5 87			lda l0087
  2264 32AE E9 00			sbc #$00
  2265 32B0 85 87			sta l0087
  2266 32B2 EE 9C 13			inc l139c
  2267 32B5 60				rts
  2268 					.endp
  2269
  2270 32B6				.proc l32b6
  2271 32B6 18				clc
  2272 32B7 A5 8A			lda l008a
  2273 32B9 69 02			adc #$02
  2274 32BB 85 8A			sta l008a
  2275 32BD A5 8B			lda l008b
  2276 32BF 69 00			adc #$00
  2277 32C1 85 8B			sta l008b
  2278 32C3 60				rts
  2279 					.endp
  2280
  2281 32C4 A5 8A		l32c4	lda l008a
  2282 32C6 85 84			sta l0084
  2283 32C8 A5 8B			lda l008b
  2284 32CA 85 85			sta l0085
  2285 32CC A0 00			ldy #$00
  2286 32CE B1 84		l32ce	lda (l0084),y
  2287 32D0 C8				iny
  2288 32D1 C9 9B			cmp #$9b
  2289 32D3 D0 F9			bne l32ce
  2290 32D5 98				tya
  2291 32D6 18				clc
  2292 32D7 65 84			adc l0084
  2293 32D9 85 84			sta l0084
  2294 32DB A9 00			lda #$00
  2295 32DD 65 85			adc l0085
  2296 32DF 85 85			sta l0085
  2297 32E1 A0 00		l32e1	ldy #$00
  2298 32E3 B1 84			lda (l0084),y
  2299 32E5 85 8C			sta l008c
  2300 32E7 C8				iny
  2301 32E8 B1 84			lda (l0084),y
  2302 32EA 05 8C			ora l008c
  2303 32EC F0 10			beq l32fe
  2304 32EE 18				clc
  2305 32EF A5 84			lda l0084
  2306 32F1 69 02			adc #$02
  2307 32F3 85 84			sta l0084
  2308 32F5 A5 85			lda l0085
  2309 32F7 69 00			adc #$00
  2310 32F9 85 85			sta l0085
  2311 32FB 4C E1 32			jmp l32e1
  2312 32FE 18			l32fe	clc
  2313 32FF A5 84			lda l0084
  2314 3301 69 02			adc #$02
  2315 3303 85 8A			sta l008a
  2316 3305 A5 85			lda l0085
  2317 3307 69 00			adc #$00
  2318 3309 85 8B			sta l008b
  2319 330B 60				rts
  2320 330C 18			l330c	clc
  2321 330D A5 8C			lda l008c
  2322 330F 69 03			adc #$03
  2323 3311 85 84			sta l0084
  2324 3313 A5 8D			lda l008d
  2325 3315 69 00			adc #$00
  2326 3317 85 85			sta l0085
  2327 3319 A2 42			ldx #$42
  2328 331B 20 39 32			jsr l3239
  2329 331E AD 9D 13			lda l139d
  2330 3321 CD 9F 13			cmp selected_entry_l139f
  2331 3324 D0 10			bne l3336
  2332 3326 A5 8C			lda l008c
  2333 3328 8D A0 13			sta menu_ptr_l13a0
  2334 332B A5 8D			lda l008d
  2335 332D 8D A1 13			sta menu_ptr_l13a0+1
  2336 3330 A9 1E			lda #$1e
  2337 3332 A0 80			ldy #$80
  2338 3334 D0 03			bne l3339
  2339 3336 A9 00		l3336	lda #$00
  2340 3338 A8				tay
  2341 3339 8D A3 13		l3339	sta l13a3
  2342 333C 8C A2 13			sty l13a2
  2343 333F A9 01			lda #$01
  2344 3341 8D A4 13			sta l13a4
  2345 3344 20 53 32			jsr l3253
  2346 3347 60				rts
  2347 3348 A5 8A		l3348	lda l008a
  2348 334A 85 84			sta l0084
  2349 334C A5 8B			lda l008b
  2350 334E 85 85			sta l0085
  2351 3350 A2 46			ldx #$46
  2352 3352 20 39 32			jsr l3239
  2353 3355 AD 9D 13			lda l139d
  2354 3358 CD 9F 13			cmp selected_entry_l139f
  2355 335B D0 0E			bne l336b
  2356 335D A5 8A			lda l008a
  2357 335F 8D A0 13			sta menu_ptr_l13a0
  2358 3362 A5 8B			lda l008b
  2359 3364 8D A1 13			sta menu_ptr_l13a0+1
  2360 3367 A9 1E			lda #$1e
  2361 3369 D0 02			bne l336d
  2362 336B A9 00		l336b	lda #$00
  2363 336D 8D A3 13		l336d	sta l13a3
  2364 3370 A9 00			lda #$00
  2365 3372 8D A2 13			sta l13a2
  2366 3375 8D A4 13			sta l13a4
  2367 3378 20 53 32			jsr l3253
  2368 337B A0 00		l337b	ldy #$00
  2369 337D B1 84			lda (l0084),y
  2370 337F 85 8C			sta l008c
  2371 3381 C8				iny
  2372 3382 B1 84			lda (l0084),y
  2373 3384 85 8D			sta l008d
  2374 3386 05 8C			ora l008c
  2375 3388 F0 10			beq l339a
  2376 338A 18				clc
  2377 338B A5 84			lda l0084
  2378 338D 69 02			adc #$02
  2379 338F 85 84			sta l0084
  2380 3391 A5 85			lda l0085
  2381 3393 69 00			adc #$00
  2382 3395 85 85			sta l0085
  2383 3397 4C 7B 33			jmp l337b
  2384 339A 18			l339a	clc
  2385 339B A5 84			lda l0084
  2386 339D 69 02			adc #$02
  2387 339F 85 8A			sta l008a
  2388 33A1 A5 85			lda l0085
  2389 33A3 69 00			adc #$00
  2390 33A5 85 8B			sta l008b
  2391 33A7 60				rts
  2392
  2393 33A8				.proc set_menu_ptr_l33a88
  2394 33A8 A9 00			lda #$00
  2395 33AA 8D A9 13			sta selected_max_line_l13a9
  2396 33AD 8D A0 13			sta menu_ptr_l13a0
  2397 33B0 8D A1 13			sta menu_ptr_l13a0+1
  2398 33B3 A5 88			lda l0088
  2399 33B5 85 84			sta l0084
  2400 33B7 A5 89			lda l0089
  2401 33B9 85 85			sta l0085
  2402 33BB A9 00			lda #$00
  2403 33BD 85 86			sta l0086
  2404 33BF A9 10			lda #$10
  2405 33C1 85 87			sta l0087
  2406 33C3 A9 00			lda #$00
  2407 33C5 8D A3 13			sta l13a3
  2408 33C8 8D A2 13			sta l13a2
  2409 33CB 8D A4 13			sta l13a4
  2410 33CE 20 53 32			jsr l3253
  2411 33D1 A9 00			lda #$00
  2412 33D3 8D 9C 13			sta l139c
  2413 33D6 8D 9D 13			sta l139d
  2414 33D9 A5 84			lda l0084
  2415 33DB 85 8A			sta l008a
  2416 33DD A5 85			lda l0085
  2417 33DF 85 8B			sta l008b
  2418 33E1 A0 00		l33e1	ldy #$00
  2419 33E3 B1 8A			lda (l008a),y
  2420 33E5 85 8C			sta l008c
  2421 33E7 C8				iny
  2422 33E8 B1 8A			lda (l008a),y
  2423 33EA 85 8D			sta l008d
  2424 33EC 05 8C			ora l008c
  2425 33EE F0 29			beq l3419
  2426 33F0 AD 9C 13			lda l139c
  2427 33F3 C9 14			cmp #$14
  2428 33F5 F0 22			beq l3419
  2429 33F7 AD 9D 13			lda l139d
  2430 33FA CD 9E 13			cmp l139e
  2431 33FD 90 0E			bcc l340d
  2432 33FF AD 9E 13			lda l139e
  2433 3402 18				clc
  2434 3403 69 14			adc #$14
  2435 3405 CD 9D 13			cmp l139d
  2436 3408 90 03			bcc l340d
  2437 340A 20 0C 33			jsr l330c
  2438 340D 20 B6 32		l340d	jsr l32b6
  2439 3410 EE 9D 13			inc l139d
  2440 3413 EE A9 13			inc selected_max_line_l13a9
  2441 3416 4C E1 33			jmp l33e1
  2442
  2443 3419 A0 00		l3419	ldy #$00
  2444 341B B1 8A			lda (l008a),y
  2445 341D 85 8C			sta l008c
  2446 341F C8				iny
  2447 3420 B1 8A			lda (l008a),y
  2448 3422 05 8C			ora l008c
  2449 3424 F0 09			beq l342f
  2450 3426 20 B6 32			jsr l32b6
  2451 3429 EE A9 13			inc selected_max_line_l13a9
  2452 342C 4C 19 34			jmp l3419
  2453 342F AD 98 13		l342f	lda l1398
  2454 3432 D0 48			bne l347c
  2455 3434 20 B6 32			jsr l32b6
  2456 3437 A0 00		l3437	ldy #$00
  2457 3439 B1 8A			lda (l008a),y
  2458 343B C9 00			cmp #$00
  2459 343D D0 3D			bne l347c
  2460 343F AD 9C 13			lda l139c
  2461 3442 C9 14			cmp #$14
  2462 3444 F0 25			beq l346b
  2463 3446 AD 9D 13			lda l139d
  2464 3449 CD 9E 13			cmp l139e
  2465 344C 90 11			bcc l345f
  2466 344E AD 9E 13			lda l139e
  2467 3451 18				clc
  2468 3452 69 14			adc #$14
  2469 3454 CD 9D 13			cmp l139d
  2470 3457 90 06			bcc l345f
  2471 3459 20 48 33			jsr l3348
  2472 345C 4C 62 34			jmp l3462
  2473 345F 20 C4 32		l345f	jsr l32c4
  2474 3462 EE 9D 13		l3462	inc l139d
  2475 3465 EE A9 13			inc selected_max_line_l13a9
  2476 3468 4C 37 34			jmp l3437
  2477 346B A0 00		l346b	ldy #$00
  2478 346D B1 8A			lda (l008a),y
  2479 346F C9 00			cmp #$00
  2480 3471 D0 09			bne l347c
  2481 3473 20 C4 32			jsr l32c4
  2482 3476 EE A9 13			inc selected_max_line_l13a9
  2483 3479 4C 6B 34			jmp l346b
  2484 347C AD 9C 13		l347c	lda l139c
  2485 347F C9 14			cmp #$14
  2486 3481 F0 13			beq l3496
  2487 3483 A0 00			ldy #$00
  2488 3485 98				tya
  2489 3486 91 86		l3486	sta (l0086),y
  2490 3488 C8				iny
  2491 3489 C0 28			cpy #$28
  2492 348B D0 F9			bne l3486
  2493 348D EE 9C 13			inc l139c
  2494 3490 20 45 32			jsr add40_l3245
  2495 3493 4C 7C 34			jmp l347c
  2496 3496 A2 00		l3496	ldx #$00
  2497 3498 AD A9 13			lda selected_max_line_l13a9
  2498 349B C9 15			cmp #$15
  2499 349D B0 0B			bcs l34aa
  2500 349F 8A				txa
  2501 34A0 9D 70 13		l34a0	sta l1370,x
  2502 34A3 E8				inx
  2503 34A4 E0 28			cpx #$28
  2504 34A6 D0 F8			bne l34a0
  2505 34A8 F0 0B			beq l34b5
  2506 34AA BD 83 31		l34aa	lda text_l3183,x
  2507 34AD 9D 70 13			sta l1370,x
  2508 34B0 E8				inx
  2509 34B1 E0 28			cpx #$28
  2510 34B3 D0 F5			bne l34aa
  2511
  2512 34B5 AD 0B D4		l34b5	lda vcount
  2513 34B8 C9 80			cmp #$80
  2514 34BA D0 F9			bne l34b5
  2515 34BC A9 22			lda #$22
  2516 34BE 8D 00 D4			sta dmaclt
  2517 34C1 8D 2F 02			sta sdmctl
  2518 34C4 A9 39			lda #$39
  2519 34C6 8D 30 02			sta sdlstl
  2520 34C9 8D 02 D4			sta dlistl
  2521 34CC A9 31			lda #$31
  2522 34CE 8D 31 02			sta sdlsth
  2523 34D1 8D 03 D4			sta dlisth
  2524 34D4 A9 E0			lda #$e0
  2525 34D6 8D 09 D4			sta chbase
  2526 34D9 8D F4 02			sta chbas
  2527 34DC A9 02			lda #$02
  2528 34DE 8D F3 02			sta chact
  2529 34E1 8D 01 D4			sta chactl
  2530 34E4 60				rts
  2531 					.endp
  2532
  2533 34E5				.proc l34e5
  2534 34E5 AD 98 13			lda l1398
  2535 34E8 D0 24			bne l350e
  2536 34EA EE 98 13			inc l1398
  2537 34ED AD 9F 13			lda selected_entry_l139f
  2538 34F0 8D A6 13			sta l13a6
  2539 34F3 AD 9E 13			lda l139e
  2540 34F6 8D A5 13			sta l13a5
  2541 34F9 A9 00			lda #$00
  2542 34FB 8D 9F 13			sta selected_entry_l139f
  2543 34FE 8D 9E 13			sta l139e
  2544 3501 AD A0 13			lda menu_ptr_l13a0
  2545 3504 85 88			sta l0088
  2546 3506 AD A1 13			lda menu_ptr_l13a0+1
  2547 3509 85 89			sta l0089
  2548 350B 20 A8 33			jsr set_menu_ptr_l33a88
  2549 350E 60			l350e	rts
  2550 					.endp
  2551
  2552 350F				.proc l350f
  2553 350F AD 98 13			lda l1398
  2554 3512 F0 23			beq l3537
  2555 3514 A9 00			lda #$00
  2556 3516 8D 98 13			sta l1398
  2557 3519 AD A6 13			lda l13a6
  2558 351C 8D 9F 13			sta selected_entry_l139f
  2559 351F AD A5 13			lda l13a5
  2560 3522 8D 9E 13			sta l139e
  2561 3525 18				clc
  2562 3526 AD F7 3F			lda l3ff7
  2563 3529 69 01			adc #$01
  2564 352B 85 88			sta l0088
  2565 352D AD F8 3F			lda l3ff8
  2566 3530 69 00			adc #$00
  2567 3532 85 89			sta l0089
  2568 3534 20 A8 33			jsr set_menu_ptr_l33a88
  2569 3537 60			l3537	rts
  2570 					.endp
  2571
  2572 3538				.proc cursor_up_l3538
  2573 3538 AD 9F 13			lda selected_entry_l139f
  2574 353B F0 11			beq l354e
  2575 353D CD 9E 13			cmp l139e
  2576 3540 F0 02			beq l3544
  2577 3542 B0 03			bcs l3547
  2578 3544 CE 9E 13		l3544	dec l139e
  2579 3547 CE 9F 13		l3547	dec selected_entry_l139f
  2580 354A 20 A8 33			jsr set_menu_ptr_l33a88
  2581 354D 60				rts
  2582
  2583 354E AD A9 13		l354e	lda selected_max_line_l13a9
  2584 3551 8D 9F 13			sta selected_entry_l139f
  2585 3554 38				sec
  2586 3555 E9 14			sbc #$14
  2587 3557 8D 9E 13			sta l139e
  2588 355A 10 EB			bpl l3547
  2589 355C A9 00			lda #$00
  2590 355E 8D 9E 13			sta l139e
  2591 3561 F0 E4			beq l3547
  2592 					.endp
  2593
  2594 3563				.proc cursor_down_l3563
  2595 3563 AE 9F 13			ldx selected_entry_l139f
  2596 3566 E8				inx
  2597 3567 EC A9 13			cpx selected_max_line_l13a9
  2598 356A B0 19			bcs scroll_down_l3585
  2599 356C AD 9F 13			lda selected_entry_l139f
  2600 356F C9 13			cmp #$13
  2601 3571 90 0B			bcc l357e
  2602 3573 38				sec
  2603 3574 ED 9E 13			sbc l139e
  2604 3577 C9 13			cmp #$13
  2605 3579 90 03			bcc l357e
  2606 357B EE 9E 13			inc l139e
  2607 357E EE 9F 13		l357e	inc selected_entry_l139f
  2608 3581 20 A8 33		l3581	jsr set_menu_ptr_l33a88
  2609 3584 60				rts
  2610 					.endp
  2611 					
  2612 3585				.proc scroll_down_l3585
  2613 3585 A9 00			lda #$00
  2614 3587 8D 9F 13			sta selected_entry_l139f
  2615 358A 8D 9E 13			sta l139e
  2616 358D F0 F2			beq cursor_down_l3563.l3581
  2617 					.endp
  2618
  2619 358F				.proc l358f
  2620 358F A2 00			ldx #$00
  2621 3591 E8			l3591	inx
  2622 3592 D0 FD			bne l3591
  2623 3594 C8				iny
  2624 3595 D0 FA			bne l3591
  2625 3597 60				rts
  2626 					.endp
  2627 					
  2628 3598				.proc l3598
  2629 3598 A9 03			lda #$03
  2630 359A 8D A8 13			sta l13a8
  2631 359D AD 9F 13		l359d	lda selected_entry_l139f
  2632 35A0 8D A7 13			sta l13a7
  2633 35A3 A9 FF			lda #$ff
  2634 35A5 8D 9F 13			sta selected_entry_l139f
  2635 35A8 20 A8 33			jsr set_menu_ptr_l33a88
  2636 35AB A0 E0			ldy #$e0
  2637 35AD 20 8F 35			jsr l358f
  2638 35B0 AD A7 13			lda l13a7
  2639 35B3 8D 9F 13			sta selected_entry_l139f
  2640 35B6 20 A8 33			jsr set_menu_ptr_l33a88
  2641 35B9 A0 E0			ldy #$e0
  2642 35BB 20 8F 35			jsr l358f
  2643 35BE CE A8 13			dec l13a8
  2644 35C1 D0 DA			bne l359d
  2645 35C3 60				rts
  2646 					.endp
  2647
  2648 35C4				.proc get_byte_l35c4
  2649 35C4 AD A0 13			lda menu_ptr_l13a0
  2650 35C7 0D A1 13			ora menu_ptr_l13a0+1
  2651 35CA D0 03			bne l35cf
  2652 35CC A9 FF			lda #$ff
  2653 35CE 60				rts
  2654
  2655 35CF AD A0 13		l35cf	lda menu_ptr_l13a0
  2656 35D2 85 84			sta l0084
  2657 35D4 AD A1 13			lda menu_ptr_l13a0+1
  2658 35D7 85 85			sta l0085
  2659 35D9 A0 00			ldy #$00
  2660 35DB B1 84			lda (l0084),y
  2661 35DD 60				rts
  2662 					.endp
  2663
  2664 35DE				.proc start_entry_l35de
  2665 35DE 20 C4 35			jsr get_byte_l35c4		;Get type of entry
  2666 35E1 A8				tay
  2667 35E2 29 80			and #$80
  2668 35E4 F0 25			beq l360b
  2669 35E6 AD 04 F1			lda os.lf104
  2670 35E9 C9 4D			cmp #$4d
  2671 35EB F0 1E			beq l360b
  2672 35ED AD 01 D3			lda portb
  2673 35F0 29 01			and #$01
  2674 35F2 F0 17			beq l360b
  2675 35F4 20 3B 36			jsr l363b
  2676 35F7 A9 9B			lda #$9b
  2677 35F9 8D 15 F1			sta os.lf115
  2678 35FC AD A0 13			lda menu_ptr_l13a0
  2679 35FF 8D 16 F1			sta os.lf116
  2680 3602 AD A1 13			lda menu_ptr_l13a0+1
  2681 3605 8D 17 F1			sta os.lf117
  2682 3608 4C 77 E4			jmp coldsv
  2683 					.endp
  2684
  2685 360B				.proc l360b		;Start entry
  2686 360B 98				tya
  2687 360C 29 7F			and #$7f
  2688 360E C9 02			cmp #$02
  2689 3610 D0 03			bne l3615
  2690 3612 4C B5 2B		l3612	jmp l2bb5
  2691 3615 C9 01		l3615	cmp #$01
  2692 3617 F0 F9			beq l3612
  2693 3619 C9 03			cmp #$03
  2694 361B D0 03			bne l3620
  2695 361D 4C CA 2B			jmp init_l2bca
  2696 3620 C9 04		l3620	cmp #$04
  2697 3622 D0 03			bne l3627
  2698 3624 4C 4A 2D			jmp init_l2d4a
  2699 3627 C9 05		l3627	cmp #$05
  2700 3629 D0 03			bne l362e
  2701 362B 4C 4A 2D			jmp init_l2d4a
  2702 362E C9 06		l362e	cmp #$06
  2703 3630 D0 03			bne l3635
  2704 3632 4C 00 28		l3632	jmp l2800
  2705 3635 C9 07		l3635	cmp #$07
  2706 3637 F0 F9			beq l3632
  2707 3639 18				clc
  2708 363A 60				rts
  2709 					.endp
  2710
  2711 363B				.proc l363b
  2712 363B AD 01 D3			lda portb
  2713 363E 09 02			ora #$02
  2714 3640 8D 01 D3			sta portb
  2715 3643 78				sei
  2716 3644 A9 00			lda #$00
  2717 3646 8D 0E D4			sta nmien
  2718 3649 AD 01 D3			lda portb
  2719 364C 29 FE			and #$fe
  2720 364E 8D 01 D3			sta portb
  2721 3651 A9 00			lda #$00
  2722 3653 85 84			sta l0084
  2723 3655 A9 20			lda #$20
  2724 3657 85 85			sta l0085
  2725 3659 A9 00			lda #$00
  2726 365B 85 86			sta l0086
  2727 365D A9 D8			lda #$d8
  2728 365F 85 87			sta l0087
  2729 3661 A2 08			ldx #$08
  2730 3663 A0 00			ldy #$00
  2731 3665 B1 84		l3665	lda (l0084),y
  2732 3667 91 86			sta (l0086),y
  2733 3669 C8				iny
  2734 366A D0 F9			bne l3665
  2735 366C E6 85			inc l0085
  2736 366E E6 87			inc l0087
  2737 3670 CA				dex
  2738 3671 D0 F2			bne l3665
  2739 3673 AE 9A 13			ldx l139a
  2740 3676 20 58 37			jsr eor_l3758
  2741 3679 A9 00			lda #$00
  2742 367B 85 86			sta l0086
  2743 367D 85 84			sta l0084
  2744 367F A9 A0			lda #$a0
  2745 3681 85 85			sta l0085
  2746 3683 A9 E0			lda #$e0
  2747 3685 85 87			sta l0087
  2748 3687 A2 20			ldx #$20
  2749 3689 A0 00			ldy #$00
  2750 368B B1 84		l368b	lda (l0084),y
  2751 368D 91 86			sta (l0086),y
  2752 368F C8				iny
  2753 3690 D0 F9			bne l368b
  2754 3692 E6 85			inc l0085
  2755 3694 E6 87			inc l0087
  2756 3696 CA				dex
  2757 3697 D0 F2			bne l368b
  2758 3699 A0 00		l3699	ldy #$00
  2759 369B AE 99 13			ldx l1399
  2760 369E 9D 00 D5			sta ld500,x
  2761 36A1 B9 00 A0		l36a1	lda la000,y
  2762 36A4 D9 00 20			cmp l2000,y
  2763 36A7 D0 F0			bne l3699
  2764 36A9 C8				iny
  2765 36AA D0 F5			bne l36a1
  2766 36AC 60				rts
  2767 					.endp
  2768
  2769 36AD				org $b6ad
  2770
  2771 B6AD				.proc main_b6ad
  2772 B6AD AD 1F D0			lda consol
  2773 B6B0 29 04			and #$04
  2774 B6B2 F0 23			beq l36d7
  2775 B6B4 A9 A0			lda #$a0
  2776 B6B6 85 FD			sta l00fd
  2777 B6B8 A9 20			lda #$20
  2778 B6BA 85 FF			sta l00ff
  2779 B6BC A9 00			lda #$00
  2780 B6BE 85 FC			sta l00fc
  2781 B6C0 85 FE			sta l00fe
  2782 B6C2 AA				tax
  2783 B6C3 A8				tay
  2784 B6C4 B1 FC		l36c4	lda (l00fc),y
  2785 B6C6 91 FE			sta (l00fe),y
  2786 B6C8 C8				iny
  2787 B6C9 D0 F9			bne l36c4
  2788 B6CB E6 FD			inc l00fd
  2789 B6CD E6 FF			inc l00ff
  2790 B6CF E8				inx
  2791 B6D0 E0 20			cpx #$20
  2792 B6D2 D0 F0			bne l36c4
  2793 B6D4 4C 15 31			jmp main_loop_l3115
  2794 B6D7 60			l36d7	rts
  2795 					.endp
  2796
  2797 B6D8				org $36d8
  2798 36D8 42 BA 08 8F 5E C6 + l36d8	.byte $42,$ba,$08,$8f,$5e,$c6,$4a,$a3,$e4,$64,$f3,$e6,$63,$f8,$3f,$39
  2799 36E8 EF CE 6D 72 BD 5A + 	.byte $ef,$ce,$6d,$72,$bd,$5a,$d9,$42,$96,$18,$26,$77,$29,$12,$57,$4c
  2800 36F8 5D C7 07 E6 59 AF + 	.byte $5d,$c7,$07,$e6,$59,$af,$44,$ed,$a5,$9c,$be,$17,$eb,$41,$32,$78
  2801 3708 9B 48 13 F6 92 DD + 	.byte $9b,$48,$13,$f6,$92,$dd,$4e,$29,$93,$2d,$7a,$73,$0c,$2d,$d9,$78
  2802 3718 D0 95 F9 24 4C EB + 	.byte $d0,$95,$f9,$24,$4c,$eb,$d9,$a0,$41,$d1,$63,$57,$af,$24,$a3,$76
  2803 3728 7C 93 55 E4 83 F7 + 	.byte $7c,$93,$55,$e4,$83,$f7,$64,$01,$13,$7d,$d0,$74,$e8,$da,$cd,$11
  2804 3738 23 2F 4D CD 6C 60 + 	.byte $23,$2f,$4d,$cd,$6c,$60,$10,$10,$fc,$8e,$6f,$1a,$6a,$0c,$08,$39
  2805 3748 EB 74 84 5F 0A D3 + 	.byte $eb,$74,$84,$5f,$0a,$d3,$a9,$d1,$5f,$e0,$19,$ec,$e9,$79,$c0,$77
  2806
  2807 3758				.proc eor_l3758			;IN: <X>
  2808 3758 A9 A0			lda #$a0
  2809 375A 85 8D			sta l008d
  2810 375C A9 00			lda #$00
  2811 375E 85 8C			sta l008c
  2812 3760 9D 00 D5			sta ld500,x
  2813 3763 A0 00		l3763	ldy #$00
  2814 3765 51 8C		l3765	eor (l008c),y
  2815 3767 C8				iny
  2816 3768 D0 FB			bne l3765
  2817 376A E6 8D			inc l008d
  2818 376C A4 8D			ldy l008d
  2819 376E C0 C0			cpy #$c0
  2820 3770 D0 F1			bne l3763
  2821 3772 DD D8 36			cmp l36d8,x
  2822 3775 D0 E1			bne eor_l3758
  2823 3777 60				rts
  2824 					.endp
  2825 3778 4C AD B6			jmp main_b6ad
  2826
  2827 377B				org $b77b
  2828
  2829 B77B 00 01 AD B6 00 00 + 	.byte $00,$01,$ad,$b6,$00,$00,$00,$00,$00,$00,$00,$00,$00,$00,$00,$00
  2830 B78B 00 00 00 00 00 00 + 	.byte $00,$00,$00,$00,$00,$00,$00,$00,$00,$00,$00,$00,$00,$00,$00,$00
  2831 B79B 00 00 00 00 00 00 + 	.byte $00,$00,$00,$00,$00,$00,$00,$00,$00,$00,$00,$00,$00,$00,$00,$00
  2832 B7AB 00 00 00 00 00 00 + 	.byte $00,$00,$00,$00,$00,$00,$00,$00,$00,$00,$00,$00,$00,$00,$00,$00
  2833 B7BB 00 00 00 00 00 00 + 	.byte $00,$00,$00,$00,$00,$00,$00,$00,$00,$00,$00,$00,$00,$00,$00,$00
  2834 B7CB 00 00 00 00 00 00 + 	.byte $00,$00,$00,$00,$00,$00,$00,$00,$00,$00,$00,$00,$00,$00,$00,$00
  2835 B7DB 00 00 00 00 00 00 + 	.byte $00,$00,$00,$00,$00,$00,$00,$00,$00,$00,$00,$00,$00,$00,$00,$00
  2836 B7EB 00 00 00 00 00 00 + 	.byte $00,$00,$00,$00,$00,$00,$00,$00,$00,$00,$00,$00,$00,$00,$00,$00
  2837 B7FB 00 00 00 00 00 00 + 	.byte $00,$00,$00,$00,$00,$00,$00,$00,$00,$00,$00,$00,$00,$00,$00,$00
  2838 B80B 00 00 00 00 00 00 + 	.byte $00,$00,$00,$00,$00,$00,$00,$00,$00,$00,$00,$00,$00,$00,$00,$00
  2839 B81B 00 00 00 00 00 00 + 	.byte $00,$00,$00,$00,$00,$00,$00,$00,$00,$00,$00,$00,$00,$00,$00,$00
  2840 B82B 00 00 00 00 00 00 + 	.byte $00,$00,$00,$00,$00,$00,$00,$00,$00,$00,$00,$00,$00,$00,$00,$00
  2841 B83B 00 00 00 00 00 00 + 	.byte $00,$00,$00,$00,$00,$00,$00,$00,$00,$00,$00,$00,$00,$00,$00,$00
  2842 B84B 00 00 00 00 00 00 + 	.byte $00,$00,$00,$00,$00,$00,$00,$00,$00,$00,$00,$00,$00,$00,$00,$00
  2843 B85B 00 00 00 00 00 00 + 	.byte $00,$00,$00,$00,$00,$00,$00,$00,$00,$00,$00,$00,$00,$00,$00,$00
  2844 B86B 00 00 00 00 00 00 + 	.byte $00,$00,$00,$00,$00,$00,$00,$00,$00,$00,$00,$00,$00,$00,$00,$00
  2845 B87B 00 00 00 00 00 00 + 	.byte $00,$00,$00,$00,$00,$00,$00,$00,$00,$00,$00,$00,$00,$00,$00,$00
  2846 B88B 00 00 00 00 00 00 + 	.byte $00,$00,$00,$00,$00,$00,$00,$00,$00,$00,$00,$00,$00,$00,$00,$00
  2847 B89B 00 00 00 00 00 00 + 	.byte $00,$00,$00,$00,$00,$00,$00,$00,$00,$00,$00,$00,$00,$00,$00,$00
  2848 B8AB 00 00 00 00 00 00 + 	.byte $00,$00,$00,$00,$00,$00,$00,$00,$00,$00,$00,$00,$00,$00,$00,$00
  2849 B8BB 00 00 00 00 00 00 + 	.byte $00,$00,$00,$00,$00,$00,$00,$00,$00,$00,$00,$00,$00,$00,$00,$00
  2850 B8CB 00 00 00 00 00 00 + 	.byte $00,$00,$00,$00,$00,$00,$00,$00,$00,$00,$00,$00,$00,$00,$00,$00
  2851 B8DB 00 00 00 00 00 00 + 	.byte $00,$00,$00,$00,$00,$00,$00,$00,$00,$00,$00,$00,$00,$00,$00,$00
  2852 B8EB 00 00 00 00 00 00 + 	.byte $00,$00,$00,$00,$00,$00,$00,$00,$00,$00,$00,$00,$00,$00,$00,$00
  2853 B8FB 00 00 00 00 00 00 + 	.byte $00,$00,$00,$00,$00,$00,$00,$00,$00,$00,$00,$00,$00,$00,$00,$00
  2854 B90B 00 00 00 00 00 00 + 	.byte $00,$00,$00,$00,$00,$00,$00,$00,$00,$00,$00,$00,$00,$00,$00,$00
  2855 B91B 00 00 00 00 00 00 + 	.byte $00,$00,$00,$00,$00,$00,$00,$00,$00,$00,$00,$00,$00,$00,$00,$00
  2856 B92B 00 00 00 00 00 00 + 	.byte $00,$00,$00,$00,$00,$00,$00,$00,$00,$00,$00,$00,$00,$00,$00,$00
  2857 B93B 00 00 00 00 00 00 + 	.byte $00,$00,$00,$00,$00,$00,$00,$00,$00,$00,$00,$00,$00,$00,$00,$00
  2858 B94B 00 00 00 00 00 00 + 	.byte $00,$00,$00,$00,$00,$00,$00,$00,$00,$00,$00,$00,$00,$00,$00,$00
  2859 B95B 00 00 00 00 00 00 + 	.byte $00,$00,$00,$00,$00,$00,$00,$00,$00,$00,$00,$00,$00,$00,$00,$00
  2860 B96B 00 00 00 00 00 00 + 	.byte $00,$00,$00,$00,$00,$00,$00,$00,$00,$00,$00,$00,$00,$00,$00,$00
  2861 B97B 00 00 00 00 00 00 + 	.byte $00,$00,$00,$00,$00,$00,$00,$00,$00,$00,$00,$00,$00,$00,$00,$00
  2862 B98B 00 00 00 00 00 00 + 	.byte $00,$00,$00,$00,$00,$00,$00,$00,$00,$00,$00,$00,$00,$00,$00,$00
  2863 B99B 00 00 00 00 00 00 + 	.byte $00,$00,$00,$00,$00,$00,$00,$00,$00,$00,$00,$00,$00,$00,$00,$00
  2864 B9AB 00 00 00 00 00 00 + 	.byte $00,$00,$00,$00,$00,$00,$00,$00,$00,$00,$00,$00,$00,$00,$00,$00
  2865 B9BB 00 00 00 00 00 00 + 	.byte $00,$00,$00,$00,$00,$00,$00,$00,$00,$00,$00,$00,$00,$00,$00,$00
  2866 B9CB 00 00 00 00 00 00 + 	.byte $00,$00,$00,$00,$00,$00,$00,$00,$00,$00,$00,$00,$00,$00,$00,$00
  2867 B9DB 00 00 00 00 00 00 + 	.byte $00,$00,$00,$00,$00,$00,$00,$00,$00,$00,$00,$00,$00,$00,$00,$00
  2868 B9EB 00 00 00 00 00 00 + 	.byte $00,$00,$00,$00,$00,$00,$00,$00,$00,$00,$00,$00,$00,$00,$00,$00
  2869 B9FB 00 00 00 00 00 00 + 	.byte $00,$00,$00,$00,$00,$00,$00,$00,$00,$00,$00,$00,$00,$00,$00,$00
  2870 BA0B 00 00 00 00 00 00 + 	.byte $00,$00,$00,$00,$00,$00,$00,$00,$00,$00,$00,$00,$00,$00,$00,$00
  2871 BA1B 00 00 00 00 00 00 + 	.byte $00,$00,$00,$00,$00,$00,$00,$00,$00,$00,$00,$00,$00,$00,$00,$00
  2872 BA2B 00 00 00 00 00 00 + 	.byte $00,$00,$00,$00,$00,$00,$00,$00,$00,$00,$00,$00,$00,$00,$00,$00
  2873 BA3B 00 00 00 00 00 00 + 	.byte $00,$00,$00,$00,$00,$00,$00,$00,$00,$00,$00,$00,$00,$00,$00,$00
  2874 BA4B 00 00 00 00 00 00 + 	.byte $00,$00,$00,$00,$00,$00,$00,$00,$00,$00,$00,$00,$00,$00,$00,$00
  2875 BA5B 00 00 00 00 00 00 + 	.byte $00,$00,$00,$00,$00,$00,$00,$00,$00,$00,$00,$00,$00,$00,$00,$00
  2876 BA6B 00 00 00 00 00 00 + 	.byte $00,$00,$00,$00,$00,$00,$00,$00,$00,$00,$00,$00,$00,$00,$00,$00
  2877 BA7B 00 00 00 00 00 00 + 	.byte $00,$00,$00,$00,$00,$00,$00,$00,$00,$00,$00,$00,$00,$00,$00,$00
  2878 BA8B 00 00 00 00 00 00 + 	.byte $00,$00,$00,$00,$00,$00,$00,$00,$00,$00,$00,$00,$00,$00,$00,$00
  2879 BA9B 00 00 00 00 00 00 + 	.byte $00,$00,$00,$00,$00,$00,$00,$00,$00,$00,$00,$00,$00,$00,$00,$00
  2880 BAAB 00 00 00 00 00 00 + 	.byte $00,$00,$00,$00,$00,$00,$00,$00,$00,$00,$00,$00,$00,$00,$00,$00
  2881 BABB 00 00 00 00 00 00 + 	.byte $00,$00,$00,$00,$00,$00,$00,$00,$00,$00,$00,$00,$00,$00,$00,$00
  2882 BACB 00 00 00 00 00 00 + 	.byte $00,$00,$00,$00,$00,$00,$00,$00,$00,$00,$00,$00,$00,$00,$00,$00
  2883 BADB 00 00 00 00 00 00 + 	.byte $00,$00,$00,$00,$00,$00,$00,$00,$00,$00,$00,$00,$00,$00,$00,$00
  2884 BAEB 00 00 00 00 00 00 + 	.byte $00,$00,$00,$00,$00,$00,$00,$00,$00,$00,$00,$00,$00,$00,$00,$00
  2885 BAFB 00 00 00 00 00 00 + 	.byte $00,$00,$00,$00,$00,$00,$00,$00,$00,$00,$00,$00,$00,$00,$00,$00
  2886 BB0B 00 00 00 00 00 00 + 	.byte $00,$00,$00,$00,$00,$00,$00,$00,$00,$00,$00,$00,$00,$00,$00,$00
  2887 BB1B 00 00 00 00 00 00 + 	.byte $00,$00,$00,$00,$00,$00,$00,$00,$00,$00,$00,$00,$00,$00,$00,$00
  2888 BB2B 00 00 00 00 00 00 + 	.byte $00,$00,$00,$00,$00,$00,$00,$00,$00,$00,$00,$00,$00,$00,$00,$00
  2889 BB3B 00 00 00 00 00 00 + 	.byte $00,$00,$00,$00,$00,$00,$00,$00,$00,$00,$00,$00,$00,$00,$00,$00
  2890 BB4B 00 00 00 00 00 00 + 	.byte $00,$00,$00,$00,$00,$00,$00,$00,$00,$00,$00,$00,$00,$00,$00,$00
  2891 BB5B 00 00 00 00 00 00 + 	.byte $00,$00,$00,$00,$00,$00,$00,$00,$00,$00,$00,$00,$00,$00,$00,$00
  2892 BB6B 00 00 00 00 00 00 + 	.byte $00,$00,$00,$00,$00,$00,$00,$00,$00,$00,$00,$00,$00,$00,$00,$00
  2893 BB7B 00 00 00 00 00 00 + 	.byte $00,$00,$00,$00,$00,$00,$00,$00,$00,$00,$00,$00,$00,$00,$00,$00
  2894 BB8B 00 00 00 00 00 00 + 	.byte $00,$00,$00,$00,$00,$00,$00,$00,$00,$00,$00,$00,$00,$00,$00,$00
  2895 BB9B 00 00 00 00 00 00 + 	.byte $00,$00,$00,$00,$00,$00,$00,$00,$00,$00,$00,$00,$00,$00,$00,$00
  2896 BBAB 00 00 00 00 00 00 + 	.byte $00,$00,$00,$00,$00,$00,$00,$00,$00,$00,$00,$00,$00,$00,$00,$00
  2897 BBBB 00 00 00 00 00 00 + 	.byte $00,$00,$00,$00,$00,$00,$00,$00,$00,$00,$00,$00,$00,$00,$00,$00
  2898 BBCB 00 00 00 00 00 00 + 	.byte $00,$00,$00,$00,$00,$00,$00,$00,$00,$00,$00,$00,$00,$00,$00,$00
  2899 BBDB 00 00 00 00 00 00 + 	.byte $00,$00,$00,$00,$00,$00,$00,$00,$00,$00,$00,$00,$00,$00,$00,$00
  2900 BBEB 00 00 00 00 00 00 + 	.byte $00,$00,$00,$00,$00,$00,$00,$00,$00,$00,$00,$00,$00,$00,$00,$00
  2901 BBFB 00 00 00 00 00 00 + 	.byte $00,$00,$00,$00,$00,$00,$00,$00,$00,$00,$00,$00,$00,$00,$00,$00
  2902 BC0B 00 00 00 00 00 00 + 	.byte $00,$00,$00,$00,$00,$00,$00,$00,$00,$00,$00,$00,$00,$00,$00,$00
  2903 BC1B 00 00 00 00 00 00 + 	.byte $00,$00,$00,$00,$00,$00,$00,$00,$00,$00,$00,$00,$00,$00,$00,$00
  2904 BC2B 00 00 00 00 00 00 + 	.byte $00,$00,$00,$00,$00,$00,$00,$00,$00,$00,$00,$00,$00,$00,$00,$00
  2905 BC3B 00 00 00 00 00 00 + 	.byte $00,$00,$00,$00,$00,$00,$00,$00,$00,$00,$00,$00,$00,$00,$00,$00
  2906 BC4B 00 00 00 00 00 00 + 	.byte $00,$00,$00,$00,$00,$00,$00,$00,$00,$00,$00,$00,$00,$00,$00,$00
  2907 BC5B 00 00 00 00 00 00 + 	.byte $00,$00,$00,$00,$00,$00,$00,$00,$00,$00,$00,$00,$00,$00,$00,$00
  2908 BC6B 00 00 00 00 00 00 + 	.byte $00,$00,$00,$00,$00,$00,$00,$00,$00,$00,$00,$00
  2909 BC77			lbc77
  2910 BC77				icl "MaxflashMenu-Old-Entries.asm"
Source: C:\jac\system\Java\Programming\Workspaces\Productions\com.wudsn.productions.atari800.thecartstudio\asm\atarimax\old\MaxflashMenu-Old-Entries.asm
     1 				;	@com.wudsn.ide.asm.mainsourcefile=MaxflashMenu-Old.asm
     2
     3 BC77 7E			            .byte $7E
     4 BC78 00 32 69 63 68 07 +             .sb " Rich's Multi-Cart"
     5 BC8A 9B			            .byte $9B
     6
     7 BC8B F3 BC E5 BC 12 BD +             .word L3CF3,L3CE5,L3D12,L3D31,L3D51,L3D82,L3D04,L3DA5
     8 BC9B C9 BD DA BD 1D BD +             .word L3DC9,L3DDA,L3D1D,L3DF0,L3DFB,L3E0D,L3D45,L3E1A
     9 BCAB 2A BE 40 BE 4D BE +             .word L3E2A,L3E40,L3E4D,L3E5B,L3D6A,L3E6B,L3E79,L3E8A
    10 BCBB AA BE C3 BE E5 BE +             .word L3EAA,L3EC3,L3EE5,L3EF5,L3F09,L3D99,L3F1D,L3F29
    11 BCCB 37 BF 4C BF 5B BF +             .word L3F37,L3F4C,L3F5B,L3F6A,L3F75,L3F89,L3F9D,L3FB6
    12 BCDB CF BF E0 BF BB BD +             .word L3FCF,L3FE0,L3DBB,L3FED
    13 BCE3 00 00		            .word $0000
    14 				           
    15 BCE5 06 00 40 01		L3CE5       .byte $06,$00,$40,$01
    16 BCE9 21 6C 6C 65 79 00 +             .sb "Alley Cat"
    17 BCF2 9B			            .byte $9B
    18 BCF3 05 21 00 00		L3CF3       .byte $05,$21,$00,$00
    19 BCF7 21 63 74 69 6F 6E +             .sb "Action Biker"
    20 BD03 9B			            .byte $9B
    21 BD04 06 05 00 01		L3D04       .byte $06,$05,$00,$01
    22 BD08 22 72 75 63 65 00 +             .sb "Bruce Lee"
    23 BD11 9B			            .byte $9B
    24 BD12 05 26 1C 19		L3D12       .byte $05,$26,$1C,$19
    25 BD16 21 72 63 68 6F 6E	            .sb "Archon"
    26 BD1C 9B			            .byte $9B
    27 BD1D 06 09 00 01		L3D1D       .byte $06,$09,$00,$01
    28 BD21 27 72 65 6D 6C 69 +             .sb "Gremlins (5200)"
    29 BD30 9B			            .byte $9B
    30 BD31 05 2A 52 05		L3D31       .byte $05,$2A,$52,$05
    31 BD35 21 72 63 68 6F 6E +             .sb "Archon II Adept"
    32 BD44 9B			            .byte $9B
    33 BD45 06 0D C0 02		L3D45       .byte $06,$0D,$C0,$02
    34 BD49 2A 75 6D 70 6D 61 +             .sb "Jumpman"
    35 BD50 9B			            .byte $9B
    36 BD51 05 2E 78 12		L3D51       .byte $05,$2E,$78,$12
    37 BD55 22 63 07 73 00 31 +             .sb "Bc's Quest For Tires"
    38 BD69 9B			            .byte $9B
    39 BD6A 06 18 40 01		L3D6A       .byte $06,$18,$40,$01
    40 BD6E 2D 61 73 74 65 72 +             .sb "Master of the Lamps"
    41 BD81 9B			            .byte $9B
    42 BD82 05 30 92 16		L3D82       .byte $05,$30,$92,$16
    43 BD86 22 72 65 61 6B 6F +             .sb "Breakout (Paddles)"
    44 BD98 9B			            .byte $9B
    45 BD99 86 1D 80 00		L3D99       .byte $86,$1D,$80,$00
    46 BD9D 30 69 6E 68 65 61 +             .sb "Pinhead"
    47 BDA4 9B			            .byte $9B
    48 BDA5 05 31 E0 16		L3DA5       .byte $05,$31,$E0,$16
    49 BDA9 23 6C 6F 77 6E 73 +             .sb "Clowns & Balloons"
    50 BDBA 9B			            .byte $9B
    51 BDBB 06 1F 80 00		L3DBB       .byte $06,$1F,$80,$00
    52 BDBF 37 69 6E 67 00 37 +             .sb "Wing Wars"
    53 BDC8 9B			            .byte $9B
    54 BDC9 05 33 F7 09		L3DC9       .byte $05,$33,$F7,$09
    55 BDCD 25 6C 65 6B 74 72 +             .sb "Elektraglide"
    56 BDD9 9B			            .byte $9B
    57 BDDA 05 36 42 03		L3DDA       .byte $05,$36,$42,$03
    58 BDDE 27 61 74 65 77 61 +             .sb "Gateway to Apshai"
    59 BDEF 9B			            .byte $9B
    60 BDF0 05 38 CA 03		L3DF0       .byte $05,$38,$CA,$03
    61 BDF4 27 79 72 75 73 73	            .sb "Gyruss"
    62 BDFA 9B			            .byte $9B
    63 BDFB 05 3A E0 03		L3DFB       .byte $05,$3A,$E0,$03
    64 BDFF 28 61 72 64 00 28 +             .sb "Hard Hat Mack"
    65 BE0C 9B			            .byte $9B
    66 BE0D 85 3D A7		L3E0D       .byte $85,$3D,$A7
    67 BE10 1F 28 61 72 64 62 +             .sb "?Hardball"
    68 BE19 9B			            .byte $9B
    69 BE1A 05 42 BD 1C		L3E1A       .byte $05,$42,$BD,$1C
    70 BE1E 2A 75 6D 70 6D 61 +             .sb "Jumpman Jr."
    71 BE29 9B			            .byte $9B
    72 BE2A 05 44 33 1D		L3E2A       .byte $05,$44,$33,$1D
    73 BE2E 2B 61 62 6F 6F 6D +             .sb "Kaboom! (Paddles)"
    74 BE3F 9B			            .byte $9B
    75 BE40 05 45 8B 0D		L3E40       .byte $05,$45,$8B,$0D
    76 BE44 2B 61 6E 67 61 72 +             .sb "Kangaroo"
    77 BE4C 9B			            .byte $9B
    78 BE4D 05 46 B2 1A		L3E4D       .byte $05,$46,$B2,$1A
    79 BE51 2B 69 6B 0D 33 74 +             .sb "Kik-Start"
    80 BE5A 9B			            .byte $9B
    81 BE5B 05 49 44 06		L3E5B       .byte $05,$49,$44,$06
    82 BE5F 2C 6F 64 65 00 32 +             .sb "Lode Runner"
    83 BE6A 9B			            .byte $9B
    84 BE6B 05 4C CF 07		L3E6B       .byte $05,$4C,$CF,$07
    85 BE6F 2D 65 67 61 6D 61 +             .sb "Megamania"
    86 BE78 9B			            .byte $9B
    87 BE79 05 4D E5 07		L3E79       .byte $05,$4D,$E5,$07
    88 BE7D 2D 69 6E 65 72 00 +             .sb "Miner 2049er"
    89 BE89 9B			            .byte $9B
    90 BE8A 85 4F 30 08		L3E8A       .byte $85,$4F,$30,$08
    91 BE8E 2D 69 73 73 69 6C +             .sb "Missile Command (Trackball)"
    92 BEA9 9B			            .byte $9B
    93 BEAA 05 50 47 0A		L3EAA       .byte $05,$50,$47,$0A
    94 BEAE 2D 6F 6E 74 65 7A +             .sb "Montezuma's Revenge!"
    95 BEC2 9B			            .byte $9B
    96 BEC3 05 55 5D 0C		L3EC3       .byte $05,$55,$5D,$0C
    97 BEC7 2D 72 0E 00 32 6F +             .sb "Mr. Robot & His Robot Factory"
    98 BEE4 9B			            .byte $9B
    99 BEE5 05 57 3D 0B		L3EE5       .byte $05,$57,$3D,$0B
   100 BEE9 2E 65 63 72 6F 6D +             .sb "Necromancer"
   101 BEF4 9B			            .byte $9B
   102 BEF5 05 59 D3 0D		L3EF5       .byte $05,$59,$D3,$0D
   103 BEF9 2F 6C 6C 69 65 07 +             .sb "Ollie's Follies"
   104 BF08 9B			            .byte $9B
   105 BF09 05 5D 98 0D		L3F09       .byte $05,$5D,$98,$0D
   106 BF0D 30 68 61 72 61 6F +             .sb "Pharaoh's Curse"
   107 BF1C 9B			            .byte $9B
   108 BF1D 05 5F EF 17		L3F1D       .byte $05,$5F,$EF,$17
   109 BF21 30 69 74 66 61 6C +             .sb "Pitfall"
   110 BF28 9B			            .byte $9B
   111 BF29 05 60 C0 18		L3F29       .byte $05,$60,$C0,$18
   112 BF2D 30 69 74 66 61 6C +             .sb "Pitfall 2"
   113 BF36 9B			            .byte $9B
   114 BF37 05 62 BF 19 32	L3F37       .byte $05,$62,$BF,$19,$32
   115 BF3C 61 69 64 00 2F 76 +             .sb "aid Over Moscow"
   116 BF4B 9B			            .byte $9B
   117 BF4C 05 65 31 1B		L3F4C       .byte $05,$65,$31,$1B
   118 BF50 32 69 76 65 72 00 +             .sb "River Raid"
   119 BF5A 9B			            .byte $9B
   120 BF5B 05 66 20 1A		L3F5B       .byte $05,$66,$20,$1A
   121 BF5F 33 65 61 77 6F 6C +             .sb "Seawolf II"
   122 BF69 9B			            .byte $9B
   123 BF6A 85 68 B7 12		L3F6A       .byte $85,$68,$B7,$12
   124 BF6E 33 68 61 6D 75 73	            .sb "Shamus"
   125 BF74 9B			            .byte $9B
   126 BF75 05 6A CD 0E		L3F75       .byte $05,$6A,$CD,$0E
   127 BF79 33 68 61 6D 75 73 +             .sb "Shamus - Case 2"
   128 BF88 9B			            .byte $9B
   129 BF89 05 6C 03 17		L3F89       .byte $05,$6C,$03,$17
   130 BF8D 33 70 79 07 73 00 +             .sb "Spy's Demise DV"
   131 BF9C 9B			            .byte $9B
   132 BF9D 05 6E 8F 06		L3F9D       .byte $05,$6E,$8F,$06
   133 BFA1 33 74 61 72 00 2C +             .sb "Star League Baseball"
   134 BFB5 9B			            .byte $9B
   135 BFB6 05 71 6A 14		L3FB6       .byte $05,$71,$6A,$14
   136 BFBA 34 68 65 00 2C 61 +             .sb "The Last Starfighter"
   137 BFCE 9B			            .byte $9B
   138 BFCF 05 73 8E 15		L3FCF       .byte $05,$73,$8E,$15
   139 BFD3 34 72 65 65 00 33 +             .sb "Tree Surgeon"
   140 BFDF 9B			            .byte $9B
   141 BFE0 05 76 D3 14		L3FE0       .byte $05,$76,$D3,$14
   142 BFE4 37 61 72 67 61 6D +             .sb "Wargames"
   143 BFEC 9B			            .byte $9B
   144 BFED 05 79 1A 1C		L3FED       .byte $05,$79,$1A,$1C
   145 BFF1 3A 6F 72 72 6F	            .sb "Zorro"
   146 BFF6 9B			            .byte $9B
  2911
  2912 BFF7 77 BC		lbff7	.word lbc77
  2913
  2914 BFF9 4C AD B6		lbff9	jmp main_b6ad
  2915 = BFFA			lbffa	= lbff9+1
  2916 BFFC 00			lbffc	.byte $00
  2917 BFFD 01			lbffd	.byte $01
  2918 BFFE AD B6		lbffe	.word main_b6ad
  2919
  2920 				;	.word $2e0,$2e1,lbff9
