mads 2.0.6 build 58 (28 Jan 17)
Source: C:\jac\system\Java\Programming\Workspaces\Productions\com.wudsn.productions.atari800.thecartstudio\asm\megacart\MegaCartMenu.asm
     1 				;
     2 				;	@com.wudsn.ide.asm.outputfileextension=.rom
     3 					opt h-
     4 				;
     5 				; System equates
     6 				;
     7 				; OS EQUATES
     8 				; ----------
     9 				; 
    10 				; Syntax:
    11 				; Use '=' for addresses
    12 				; and '<' for read addresses (ex: KBCODE)
    13 				; and '>' for write addresses (ex: STIMER)
    14 				; and '#' for values
    15 				; 
    16 				; IO EQUATES
    17 				; 
    18 = 0000			ICHID       = $0000
    19 = 0001			ICDNO       = $0001
    20 = 0002			ICCOM       = $0002
    21 = 0003			ICSTA       = $0003
    22 = 0004			ICBAL       = $0004
    23 = 0005			ICBAH       = $0005
    24 = 0006			ICPTL       = $0006
    25 = 0007			ICPTH       = $0007
    26 = 0008			ICBLL       = $0008
    27 = 0009			ICBLH       = $0009
    28 = 000A			ICAX1       = $000A
    29 = 000B			ICAX2       = $000B
    30 = 000C			ICAX3       = $000C
    31 = 000D			ICAX4       = $000D
    32 = 000E			ICAX5       = $000E
    33 = 000F			ICAX6       = $000F
    34 				; 
    35 				; DISPLAY LIST EQUATES
    36 				; 
    37 = 0080			ADLI        = $0080
    38 = 0040			AVB         = $0040
    39 = 0040			ALMS        = $0040
    40 = 0020			AVSCR       = $0020
    41 = 0010			AHSCR       = $0010
    42 = 0001			AJMP        = $0001
    43 = 0000			AEMPTY1     = $0000
    44 = 0010			AEMPTY2     = $0010
    45 = 0020			AEMPTY3     = $0020
    46 = 0030			AEMPTY4     = $0030
    47 = 0040			AEMPTY5     = $0040
    48 = 0050			AEMPTY6     = $0050
    49 = 0060			AEMPTY7     = $0060
    50 = 0070			AEMPTY8     = $0070
    51 				; 
    52 				; OS VARIABLES FOR XL/XE
    53 				; 
    54 				; PAGE 0
    55 				; 
    56 = 0001			NGFLAG      = $0001
    57 = 0002			CASINI      = $0002
    58 = 0004			RAMLO       = $0004
    59 = 0006			TRAMSZ      = $0006
    60 = 0007			CMCMD       = $0007
    61 = 0008			WARMST      = $0008
    62 = 0009			BOOT        = $0009
    63 = 000A			DOSVEC      = $000A
    64 = 000C			DOSINI      = $000C
    65 = 000E			APPMHI      = $000E
    66 = 0010			POKMSK      = $0010
    67 = 0011			BRKKEY      = $0011
    68 = 0012			RTCLOK      = $0012
    69 = 0015			BUFADR      = $0015
    70 = 0017			ICCOMT      = $0017
    71 = 0018			DSKFMS      = $0018
    72 = 001A			DSKUTL      = $001A
    73 = 001C			ABUFPT      = $001C
    74 = 0020			ICHIDZ      = $0020
    75 = 0021			ICDNOZ      = $0021
    76 = 0022			ICCOMZ      = $0022
    77 = 0023			ICSTAZ      = $0023
    78 = 0024			ICBALZ      = $0024
    79 = 0025			ICBAHZ      = $0025
    80 = 0026			ICPTLZ      = $0026
    81 = 0027			ICPTHZ      = $0027
    82 = 0028			ICBLLZ      = $0028
    83 = 0029			ICBLHZ      = $0029
    84 = 002A			ICAX1Z      = $002A
    85 = 002B			ICAX2Z      = $002B
    86 = 002C			ICAX3Z      = $002C
    87 = 002D			ICAX4Z      = $002D
    88 = 002E			ICAX5Z      = $002E
    89 = 002F			ICAX6Z      = $002F
    90 = 0030			STATUS      = $0030
    91 = 0031			CHKSUM      = $0031
    92 = 0032			BUFRLO      = $0032
    93 = 0033			BUFRHI      = $0033
    94 = 0034			BFENLO      = $0034
    95 = 0035			BFENHI      = $0035
    96 = 0036			LTEMP       = $0036
    97 = 0038			BUFRFL      = $0038
    98 = 0039			RECVDN      = $0039
    99 = 003A			XMTDON      = $003A
   100 = 003B			CHKSNT      = $003B
   101 = 003C			NOCKSM      = $003C
   102 = 003D			BPTR        = $003D
   103 = 003E			FTYPE       = $003E
   104 = 003F			FEOF        = $003F
   105 = 0040			FREQ        = $0040
   106 = 0041			SOUNDR      = $0041
   107 = 0042			CRITIC      = $0042
   108 = 0043			FMSZPG      = $0043
   109 = 004A			ZCHAIN      = $004A
   110 = 004C			DSTAT       = $004C
   111 = 004D			ATRACT      = $004D
   112 = 004E			DRKMSK      = $004E
   113 = 004F			COLRSH      = $004F
   114 = 0050			TEMP        = $0050
   115 = 0051			HOLD1       = $0051
   116 = 0052			LMARGN      = $0052
   117 = 0053			RMARGN      = $0053
   118 = 0054			ROWCRS      = $0054
   119 = 0055			COLCRS      = $0055
   120 = 0057			DINDEX      = $0057
   121 = 0058			SAVMSC      = $0058
   122 = 005A			OLDROW      = $005A
   123 = 005B			OLDCOL      = $005B
   124 = 005D			OLDCHR      = $005D
   125 = 005E			OLDADR      = $005E
   126 = 0060			FKDEF       = $0060
   127 = 0062			PALNTS      = $0062
   128 = 0063			LOGCOL      = $0063
   129 = 0064			ADRESS      = $0064
   130 = 0066			MLTTMP      = $0066
   131 = 0068			SAVADR      = $0068
   132 = 006A			RAMTOP      = $006A
   133 = 006B			BUFCNT      = $006B
   134 = 006C			BUFSTR      = $006C
   135 = 006E			BITMSK      = $006E
   136 = 006F			SHFAMT      = $006F
   137 = 0070			ROWAC       = $0070
   138 = 0072			COLAC       = $0072
   139 = 0074			ENDPT       = $0074
   140 = 0076			DELTAR      = $0076
   141 = 0077			DELTAC      = $0077
   142 = 0079			KEYDEF      = $0079
   143 = 007B			SWPFLG      = $007B
   144 = 007C			HOLDCH      = $007C
   145 = 007D			INSDAT      = $007D
   146 = 007E			COUNTR      = $007E
   147 = 0080			LOMEM       = $0080
   148 				; 
   149 				; PAGE 2
   150 				; 
   151 = 0200			VDSLST      = $0200
   152 = 0202			VPRCED      = $0202
   153 = 0204			VINTER      = $0204
   154 = 0206			VBREAK      = $0206
   155 = 0208			VKEYBD      = $0208
   156 = 020A			VSERIN      = $020A
   157 = 020C			VSEROR      = $020C
   158 = 020E			VSEROC      = $020E
   159 = 0210			VTIMR1      = $0210
   160 = 0212			VTIMR2      = $0212
   161 = 0214			VTIMR4      = $0214
   162 = 0216			VIMIRQ      = $0216
   163 = 0218			CDTMV1      = $0218
   164 = 021A			CDTMV2      = $021A
   165 = 021C			CDTMV3      = $021C
   166 = 021E			CDTMV4      = $021E
   167 = 0220			CDTMV5      = $0220
   168 = 0222			VVBLKI      = $0222
   169 = 0224			VVBLKD      = $0224
   170 = 0226			CDTMA1      = $0226
   171 = 0228			CDTMA2      = $0228
   172 = 022A			CDTMF3      = $022A
   173 = 022B			SRTIMR      = $022B
   174 = 022C			CDTMF4      = $022C
   175 = 022D			INTEMP      = $022D
   176 = 022E			CDTMF5      = $022E
   177 = 022F			SDMCTL      = $022F
   178 = 0230			SDLSTL      = $0230
   179 = 0231			SDLSTH      = $0231
   180 = 0232			SSKCTL      = $0232
   181 = 0233			SPARE       = $0233
   182 = 0234			LPENH       = $0234
   183 = 0235			LPENV       = $0235
   184 = 0236			BRKKY       = $0236
   185 = 0238			VPIRQ       = $0238
   186 = 023A			CDEVIC      = $023A
   187 = 023B			CCOMND      = $023B
   188 = 023C			CAUX1       = $023C
   189 = 023D			CAUX2       = $023D
   190 = 023E			TMPSIO      = $023E
   191 = 023F			ERRFLG      = $023F
   192 = 0240			DFLAGS      = $0240
   193 = 0241			DBSECT      = $0241
   194 = 0242			BOOTAD      = $0242
   195 = 0244			COLDST      = $0244
   196 = 0245			RECLEN      = $0245
   197 = 0246			DSKTIM      = $0246
   198 = 0247			PDVMSK      = $0247
   199 = 0248			SHPDVS      = $0248
   200 = 0249			PDMSK       = $0249
   201 = 024A			RELADR      = $024A
   202 = 024C			PPTMPA      = $024C
   203 = 024D			PPTMPX      = $024D
   204 = 026B			CHSALT      = $026B
   205 = 026C			VSFLAG      = $026C
   206 = 026D			KEYDIS      = $026D
   207 = 026E			FINE        = $026E
   208 = 026F			GPRIOR      = $026F
   209 = 0270			PADDL0      = $0270
   210 = 0271			PADDL1      = $0271
   211 = 0272			PADDL2      = $0272
   212 = 0273			PADDL3      = $0273
   213 = 0274			PADDL4      = $0274
   214 = 0275			PADDL5      = $0275
   215 = 0276			PADDL6      = $0276
   216 = 0277			PADDL7      = $0277
   217 = 0278			STICK0      = $0278
   218 = 0279			STICK1      = $0279
   219 = 027A			STICK2      = $027A
   220 = 027B			STICK3      = $027B
   221 = 027C			PTRIG0      = $027C
   222 = 027D			PTRIG1      = $027D
   223 = 027E			PTRIG2      = $027E
   224 = 027F			PTRIG3      = $027F
   225 = 0280			PTRIG4      = $0280
   226 = 0281			PTRIG5      = $0281
   227 = 0282			PTRIG6      = $0282
   228 = 0283			PTRIG7      = $0283
   229 = 0284			STRIG0      = $0284
   230 = 0285			STRIG1      = $0285
   231 = 0286			STRIG2      = $0286
   232 = 0287			STRIG3      = $0287
   233 = 0288			HIBYTE      = $0288
   234 = 0289			WMODE       = $0289
   235 = 028A			BLIM        = $028A
   236 = 028B			IMASK       = $028B
   237 = 028C			JVECK       = $028C
   238 = 028E			NEWADR      = $028E
   239 = 0290			TXTROW      = $0290
   240 = 0291			TXTCOL      = $0291
   241 = 0293			TINDEX      = $0293
   242 = 0294			TXTMSC      = $0294
   243 = 0296			TXTOLD      = $0296
   244 = 029C			CRETRY      = $029C
   245 = 029D			HOLD3       = $029D
   246 = 029E			SUBTMP      = $029E
   247 = 029F			HOLD2       = $029F
   248 = 02A0			DMASK       = $02A0
   249 = 02A1			TMPLBT      = $02A1
   250 = 02A2			ESCFLG      = $02A2
   251 = 02A3			TABMAP      = $02A3
   252 = 02B2			LOGMAP      = $02B2
   253 = 02B6			INVFLG      = $02B6
   254 = 02B7			FILFLG      = $02B7
   255 = 02B8			TMPROW      = $02B8
   256 = 02B9			TMPCOL      = $02B9
   257 = 02BB			SCRFLG      = $02BB
   258 = 02BC			HOLD4       = $02BC
   259 = 02BD			DRETRY      = $02BD
   260 = 02BE			SHFLOC      = $02BE
   261 = 02BF			BOTSCR      = $02BF
   262 = 02C0			PCOLR0      = $02C0
   263 = 02C1			PCOLR1      = $02C1
   264 = 02C2			PCOLR2      = $02C2
   265 = 02C3			PCOLR3      = $02C3
   266 = 02C4			COLOR0      = $02C4
   267 = 02C5			COLOR1      = $02C5
   268 = 02C6			COLOR2      = $02C6
   269 = 02C7			COLOR3      = $02C7
   270 = 02C8			COLOR4      = $02C8
   271 = 02C9			RUNADR      = $02C9
   272 = 02CB			HIUSED      = $02CB
   273 = 02CD			ZHIUSE      = $02CD
   274 = 02CF			GBYTEA      = $02CF
   275 = 02D1			LOADAD      = $02D1
   276 = 02D3			ZLOADA      = $02D3
   277 = 02D5			DSCTLN      = $02D5
   278 = 02D7			ACMISR      = $02D7
   279 = 02D9			KRPDER      = $02D9
   280 = 02DA			KEYREP      = $02DA
   281 = 02DB			NOCLIK      = $02DB
   282 = 02DC			HELPFG      = $02DC
   283 = 02DD			DMASAV      = $02DD
   284 = 02DE			PBPNT       = $02DE
   285 = 02DF			PBUFSZ      = $02DF
   286 = 02E0			RUNAD       = $02E0
   287 = 02E2			INITAD      = $02E2
   288 = 02E4			RAMSIZ      = $02E4
   289 = 02E5			MEMTOP      = $02E5
   290 = 02E7			MEMLO       = $02E7
   291 = 02E9			HNDLOD      = $02E9
   292 = 02EA			DVSTAT      = $02EA
   293 = 02EE			CBAUDL      = $02EE
   294 = 02EF			CBAUDH      = $02EF
   295 = 02F0			CRSINH      = $02F0
   296 = 02F1			KEYDEL      = $02F1
   297 = 02F2			CH1         = $02F2
   298 = 02F3			CHACT       = $02F3
   299 = 02F4			CHBAS       = $02F4
   300 = 02F5			NEWROW      = $02F5
   301 = 02F6			NEWCOL      = $02F6
   302 = 02F8			ROWINC      = $02F8
   303 = 02F9			COLINC      = $02F9
   304 = 02FA			CHAR        = $02FA
   305 = 02FB			ATACHR      = $02FB
   306 = 02FC			CH          = $02FC
   307 = 02FD			FILDAT      = $02FD
   308 = 02FE			DSPFLG      = $02FE
   309 = 02FF			SSFLAG      = $02FF
   310 				; 
   311 				; PAGE 3
   312 				; 
   313 = 0300			DDEVIC      = $0300
   314 = 0301			DUNIT       = $0301
   315 = 0302			DCOMND      = $0302
   316 = 0303			DSTATS      = $0303
   317 = 0304			DBUFLO      = $0304
   318 = 0305			DBUFHI      = $0305
   319 = 0306			DTIMLO      = $0306
   320 = 0307			DUNUSE      = $0307
   321 = 0308			DBYTLO      = $0308
   322 = 0309			DBYTHI      = $0309
   323 = 030A			DAUX1       = $030A
   324 = 030B			DAUX2       = $030B
   325 = 030C			TIMER1      = $030C
   326 = 030E			ADDCOR      = $030E
   327 = 030F			CASFLG      = $030F
   328 = 0310			TIMER2      = $0310
   329 = 0312			TEMP1       = $0312
   330 = 0314			TEMP2       = $0314
   331 = 0315			TEMP3       = $0315
   332 = 0316			SAVIO       = $0316
   333 = 0317			TIMFLG      = $0317
   334 = 0318			STACKP      = $0318
   335 = 0319			TSTAT       = $0319
   336 = 031A			HATABS      = $031A
   337 = 033D			PUPBT1      = $033D
   338 = 033E			PUPBT2      = $033E
   339 = 033F			PUPBT3      = $033F
   340 = 0340			IOCB0       = $0340
   341 = 0350			IOCB1       = $0350
   342 = 0360			IOCB2       = $0360
   343 = 0370			IOCB3       = $0370
   344 = 0380			IOCB4       = $0380
   345 = 0390			IOCB5       = $0390
   346 = 03A0			IOCB6       = $03A0
   347 = 03B0			IOCB7       = $03B0
   348 = 03C0			PRNBUF      = $03C0
   349 = 03E8			SUPERF      = $03E8
   350 = 03E9			CKEY        = $03E9
   351 = 03EA			CASSBT      = $03EA
   352 = 03EB			CARTCK      = $03EB
   353 = 03EC			DERRF       = $03EC
   354 = 03ED			ACMVAR      = $03ED
   355 = 03F8			BASICF      = $03F8
   356 = 03F9			MINTLK      = $03F9
   357 = 03FA			GINTLK      = $03FA
   358 = 03FB			CHLINK      = $03FB
   359 = 03FD			CASBUF      = $03FD
   360 				; 
   361 				; HARDWARE REGISTERS
   362 				; 
   363 				; GTIA
   364 				; 
   365 = D000			M0PF        = $D000
   366 = D000			HPOSP0      = $D000
   367 = D001			M1PF        = $D001
   368 = D001			HPOSP1      = $D001
   369 = D002			M2PF        = $D002
   370 = D002			HPOSP2      = $D002
   371 = D003			M3PF        = $D003
   372 = D003			HPOSP3      = $D003
   373 = D004			P0PF        = $D004
   374 = D004			HPOSM0      = $D004
   375 = D005			P1PF        = $D005
   376 = D005			HPOSM1      = $D005
   377 = D006			P2PF        = $D006
   378 = D006			HPOSM2      = $D006
   379 = D007			P3PF        = $D007
   380 = D007			HPOSM3      = $D007
   381 = D008			M0PL        = $D008
   382 = D008			SIZEP0      = $D008
   383 = D009			M1PL        = $D009
   384 = D009			SIZEP1      = $D009
   385 = D00A			M2PL        = $D00A
   386 = D00A			SIZEP2      = $D00A
   387 = D00B			M3PL        = $D00B
   388 = D00B			SIZEP3      = $D00B
   389 = D00C			P0PL        = $D00C
   390 = D00C			SIZEM       = $D00C
   391 = D00D			P1PL        = $D00D
   392 = D00D			GRAFP0      = $D00D
   393 = D00E			P2PL        = $D00E
   394 = D00E			GRAFP1      = $D00E
   395 = D00F			P3PL        = $D00F
   396 = D00F			GRAFP2      = $D00F
   397 = D010			TRIG0       = $D010
   398 = D010			GRAFP3      = $D010
   399 = D011			TRIG1       = $D011
   400 = D011			GRAFM       = $D011
   401 = D012			TRIG2       = $D012
   402 = D012			COLPM0      = $D012
   403 = D013			TRIG3       = $D013
   404 = D013			COLPM1      = $D013
   405 = D014			PAL         = $D014
   406 = D014			COLPM2      = $D014
   407 = D015			COLPM3      = $D015
   408 = D016			COLPF0      = $D016
   409 = D017			COLPF1      = $D017
   410 = D018			COLPF2      = $D018
   411 = D019			COLPF3      = $D019
   412 = D01A			COLBK       = $D01A
   413 = D01B			PRIOR       = $D01B
   414 = D01C			VDELAY      = $D01C
   415 = D01D			GRACTL      = $D01D
   416 = D01E			HITCLR      = $D01E
   417 = D01F			CONSOL      = $D01F
   418 				; 
   419 				; POKEY
   420 				; 
   421 = D200			POT0        = $D200
   422 = D200			AUDF1       = $D200
   423 = D201			POT1        = $D201
   424 = D201			AUDC1       = $D201
   425 = D202			POT2        = $D202
   426 = D202			AUDF2       = $D202
   427 = D203			POT3        = $D203
   428 = D203			AUDC2       = $D203
   429 = D204			POT4        = $D204
   430 = D204			AUDF3       = $D204
   431 = D205			POT5        = $D205
   432 = D205			AUDC3       = $D205
   433 = D206			POT6        = $D206
   434 = D206			AUDF4       = $D206
   435 = D207			POT7        = $D207
   436 = D207			AUDC4       = $D207
   437 = D208			ALLPOT      = $D208
   438 = D208			AUDCTL      = $D208
   439 = D209			KBCODE      = $D209
   440 = D209			STIMER      = $D209
   441 = D20A			RANDOM      = $D20A
   442 = D20A			SKREST      = $D20A
   443 = D20B			POTGO       = $D20B
   444 = D20D			SERIN       = $D20D
   445 = D20D			SEROUT      = $D20D
   446 = D20E			IRQST       = $D20E
   447 = D20E			IRQEN       = $D20E
   448 = D20F			SKSTAT      = $D20F
   449 = D20F			SKCTL       = $D20F
   450 				; 
   451 				; PIA
   452 				; 
   453 = D300			PORTA       = $D300
   454 = D301			PORTB       = $D301
   455 = D302			PACTL       = $D302
   456 = D303			PBCTL       = $D303
   457 				; 
   458 				; ANTIC
   459 				; 
   460 = D400			DMACLT      = $D400
   461 = D401			CHACTL      = $D401
   462 = D402			DLISTL      = $D402
   463 = D403			DLISTH      = $D403
   464 = D404			HSCROL      = $D404
   465 = D405			VSCROL      = $D405
   466 = D407			PMBASE      = $D407
   467 = D409			CHBASE      = $D409
   468 = D40A			WSYNC       = $D40A
   469 = D40B			VCOUNT      = $D40B
   470 = D40C			PENH        = $D40C
   471 = D40D			PENV        = $D40D
   472 = D40E			NMIEN       = $D40E
   473 = D40F			NMIST       = $D40F
   474 = D40F			NMIRES      = $D40F
   475 				; 
   476 				; FLOATING POINT ROUTINES
   477 				; 
   478 = D800			AFP         = $D800
   479 = D8E6			FASC        = $D8E6
   480 = D9AA			IFP         = $D9AA
   481 = D9D2			FPI         = $D9D2
   482 = DA44			ZFR0        = $DA44
   483 = DA46			ZF1         = $DA46
   484 = DA60			FSUB        = $DA60
   485 = DA66			FADD        = $DA66
   486 = DADB			FMUL        = $DADB
   487 = DB28			FDIV        = $DB28
   488 = DD40			PLYEVL      = $DD40
   489 = DD89			FLD0R       = $DD89
   490 = DD8D			FLD0P       = $DD8D
   491 = DD98			FLD1R       = $DD98
   492 = DD9C			FLD1P       = $DD9C
   493 = DDA7			FSTOR       = $DDA7
   494 = DDAB			FSTOP       = $DDAB
   495 = DDB6			FMOVE       = $DDB6
   496 = DDC0			EXP         = $DDC0
   497 = DDCC			EXP10       = $DDCC
   498 = DECD			LOG         = $DECD
   499 = DED1			LOG10       = $DED1
   500 				; 
   501 				; ROM VECTORS
   502 				; 
   503 = E453			DSKINV      = $E453
   504 = E456			CIOV        = $E456
   505 = E459			SIOV        = $E459
   506 = E45C			SETVBV      = $E45C
   507 = E45F			SYSVBV      = $E45F
   508 = E462			XITVBV      = $E462
   509 = E465			SIOINV      = $E465
   510 = E468			SENDEV      = $E468
   511 = E46B			INTINV      = $E46B
   512 = E46E			CIOINV      = $E46E
   513 = E471			SELFSV      = $E471
   514 = E474			WARMSV      = $E474
   515 = E477			COLDSV      = $E477
   516 = E47A			RBLOKV      = $E47A
   517 = E47D			CSOPIV      = $E47D
   518 = E480			PUPDIV      = $E480
   519 = E483			SELFTSV     = $E483
   520 = E486			PENTV       = $E486
   521 = E489			PHUNLV      = $E489
   522 = E48C			PHINIV      = $E48C
   523 = E48F			GPDVV       = $E48F
   524 				;
   525 				; Code equates
   526 				;
   527 = 0400			L0400       = $0400
   528 = 0401			L0401       = $0401
   529 = 0402			L0402       = $0402
   530 = 0404			L0404       = $0404
   531 = 0405			L0405       = $0405
   532 = 0406			L0406       = $0406
   533 = 0407			L0407       = $0407
   534 = 0408			L0408       = $0408
   535 = 040A			L040A       = $040A
   536 = 042C			L042C       = $042C
   537 = 043C			L043C       = $043C
   538 = 045C			L045C       = $045C
   539 = 04A3			L04A3       = $04A3
   540 = 04DE			L04DE       = $04DE
   541 = 04E8			L04E8       = $04E8
   542 = 04F5			L04F5       = $04F5
   543 = 0500			L0500       = $0500
   544 = 0545			L0545       = $0545
   545 = 0548			L0548       = $0548
   546 = 055B			L055B       = $055B
   547 = 0566			L0566       = $0566
   548 = 057B			L057B       = $057B
   549 = 057C			L057C       = $057C
   550 = 057D			L057D       = $057D
   551 = 057E			L057E       = $057E
   552 = 0600			L0600       = $0600
   553 = 060B			L060B       = $060B
   554 = 060C			L060C       = $060C
   555 = 0645			L0645       = $0645
   556 = 0688			L0688       = $0688
   557 = 06A9			L06A9       = $06A9
   558 = 06B5			L06B5       = $06B5
   559 = 0700			L0700       = $0700
   560 = 0701			L0701       = $0701
   561 = 0702			L0702       = $0702
   562 = 0703			L0703       = $0703
   563 = 0704			L0704       = $0704
   564 = 0705			L0705       = $0705
   565 = 0706			L0706       = $0706
   566 = 0707			L0707       = $0707
   567 = 0708			L0708       = $0708
   568 = 070A			L070A       = $070A
   569 = 072C			L072C       = $072C
   570 = 0736			L0736       = $0736
   571 = 0756			L0756       = $0756
   572 = 079D			L079D       = $079D
   573 = 07C6			L07C6       = $07C6
   574 = 07D0			L07D0       = $07D0
   575 = 07DD			L07DD       = $07DD
   576 = 0800			L0800       = $0800
   577 = 082D			L082D       = $082D
   578 = 0830			L0830       = $0830
   579 = 0843			L0843       = $0843
   580 = 084E			L084E       = $084E
   581 = 0863			L0863       = $0863
   582 = 0864			L0864       = $0864
   583 = 0865			L0865       = $0865
   584 = 0866			L0866       = $0866
   585 = 7C20			L7C20       = $7C20
   586 = 7C21			L7C21       = $7C21
   587 = 7C22			L7C22       = $7C22
   588 = 7C23			L7C23       = $7C23
   589 = 7C24			L7C24       = $7C24
   590 = 7C25			old_dli_L7C25       = $7C25
   591 = 7C27			old_dma_L7C27       = $7C27
   592 = 7C40			L7C40       = $7C40
   593 = 7EC0			L7EC0       = $7EC0
   594 = 7ED4			L7ED4       = $7ED4
   595 = 7ED5			L7ED5       = $7ED5
   596 = 7ED7			L7ED7       = $7ED7
   597 = 7ED8			L7ED8       = $7ED8
   598 = 8003			L8003       = $8003
   599 = B200			LB200       = $B200
   600 = B400			LB400       = $B400
   601 = B580			LB580       = $B580
   602 = B680			LB680       = $B680
   603 = C2F6			LC2F6       = $C2F6
   604 = C2F7			LC2F7       = $C2F7
   605 = C2F8			LC2F8       = $C2F8
   606 = C2F9			LC2F9       = $C2F9
   607 = C2FA			LC2FA       = $C2FA
   608 = C30B			LC30B       = $C30B
   609 = C30C			LC30C       = $C30C
   610 = C410			LC410       = $C410
   611 = C49F			LC49F       = $C49F
   612 = C4C0			LC4C0       = $C4C0
   613 = C4C1			LC4C1       = $C4C1
   614 = C4C2			LC4C2       = $C4C2
   615 = C4C3			LC4C3       = $C4C3
   616 = C4C4			LC4C4       = $C4C4
   617 = C4C5			LC4C5       = $C4C5
   618 = C4DD			LC4DD       = $C4DD
   619 = C4ED			LC4ED       = $C4ED
   620 = C4F9			LC4F9       = $C4F9
   621 = C933			LC933       = $C933
   622 = C934			LC934       = $C934
   623 = C935			LC935       = $C935
   624 = C938			LC938       = $C938
   625 = CC00			LCC00       = $CC00
   626 = CC01			LCC01       = $CC01
   627 = CC8C			LCC8C       = $CC8C
   628 = CC92			LCC92       = $CC92
   629 = CCA6			LCCA6       = $CCA6
   630 = CCB1			LCCB1       = $CCB1
   631 = CCC3			LCCC3       = $CCC3
   632 = CCC4			LCCC4       = $CCC4
   633 = CCF5			LCCF5       = $CCF5
   634 = CCF6			LCCF6       = $CCF6
   635 = CD00			LCD00       = $CD00
   636 = CD25			LCD25       = $CD25
   637 = CDC0			LCDC0       = $CDC0
   638 = CDCD			LCDCD       = $CDCD
   639 = CE00			LCE00       = $CE00
   640 = CE11			LCE11       = $CE11
   641 = CE29			LCE29       = $CE29
   642 = CE31			LCE31       = $CE31
   643 = CE86			LCE86       = $CE86
   644 = CE87			LCE87       = $CE87
   645 = CEF1			LCEF1       = $CEF1
   646 = CEF2			LCEF2       = $CEF2
   647 = CEF3			LCEF3       = $CEF3
   648 = CEF4			LCEF4       = $CEF4
   649 = CEF5			LCEF5       = $CEF5
   650 = CEF6			LCEF6       = $CEF6
   651 = CEF7			LCEF7       = $CEF7
   652 = CEF8			LCEF8       = $CEF8
   653 = CEF9			LCEF9       = $CEF9
   654 = CF00			LCF00       = $CF00
   655 = D500			LD500       = $D500
   656 = D5A1			LD5A1       = $D5A1
   657 = D5A2			LD5A2       = $D5A2
   658 = D5A3			LD5A3       = $D5A3
   659 = D5A5			LD5A5       = $D5A5
   660 = D5A6			LD5A6       = $D5A6
   661 = D5A7			LD5A7       = $D5A7
   662 = FC67			LFC67       = $FC67
   663 = FC68			LFC68       = $FC68
   664 = FC69			LFC69       = $FC69
   665 = FC6A			LFC6A       = $FC6A
   666 				;
   667 				; Start of code
   668 				;
   669 				            org $B000
   670 				;
   671 				LB000
   672 					.proc LB000_0600
   673 B000 AD 2F 02			       lda SDMCTL
   674 B003 8D 27 7C		            sta old_dma_L7C27
   675 B006 A9 00		            lda #$00
   676 B008 8D 2F 02		            sta SDMCTL
   677 B00B 8D 00 D4		            sta DMACLT
   678 B00E E6 42		            inc CRITIC
   679 B010 78			            sei
   680 B011 A9 FF		            lda #$FF
   681 B013 8D 01 D3		            sta PORTB
   682 B016 8D 00 D5		            sta LD500
   683 B019 AD 13 D0		            lda TRIG3
   684 B01C 8D FA 03		            sta GINTLK
   685 B01F AD 13 D0		            lda TRIG3
   686 B022 8D FA 03		            sta GINTLK
   687 B025 C6 42		            dec CRITIC
   688 B027 AD 27 7C		            lda old_dma_L7C27
   689 B02A 8D 2F 02		            sta SDMCTL
   690 B02D 8D 00 D4		            sta DMACLT
   691 B030 58			            cli
   692 B031 A9 C0		            lda #$C0
   693 B033 8D E4 02		            sta RAMSIZ
   694 B036 85 6A		            sta RAMTOP
   695 B038 20 A9 06		            jsr L06A9
   696 B03B 20 88 06		            jsr L0688
   697 B03E A2 40		            ldx #$40
   698 B040 A0 00		LB040       ldy #$00
   699 B042 98			            tya
   700 B043 99 20 7C		LB043       sta L7C20,Y
   701 B046 C8			            iny
   702 B047 D0 FA		            bne LB043
   703 B049 EE 45 06		            inc L0645
   704 B04C CA			            dex
   705 B04D D0 F1		            bne LB040
   706 B04F A9 00		            lda #$00
   707 B051 8D 2F 02		            sta SDMCTL
   708 B054 A5 14		            lda RTCLOK+2
   709 B056 C5 14		LB056       cmp RTCLOK+2
   710 B058 F0 FC		            beq LB056
   711 B05A AD 2F 02		            lda SDMCTL
   712 B05D 8D 27 7C		            sta old_dma_L7C27
   713 B060 A9 00		            lda #$00
   714 B062 8D 2F 02		            sta SDMCTL
   715 B065 8D 00 D4		            sta DMACLT
   716 B068 E6 42		            inc CRITIC
   717 B06A 78			            sei
   718 B06B A9 00		            lda #$00
   719 B06D 8D 00 D5		            sta LD500
   720 B070 85 49		            sta FMSZPG+6
   721 B072 A9 00		            lda #$00
   722 B074 8D 44 02		            sta COLDST
   723 B077 A9 01		            lda #$01
   724 B079 85 09		            sta BOOT
   725 B07B A9 E4		            lda #>COLDSV
   726 B07D 85 0D		            sta DOSINI+1
   727 B07F 85 0B		            sta DOSVEC+1
   728 B081 A9 77		            lda #<COLDSV
   729 B083 85 0A		            sta DOSVEC
   730 B085 85 0C		            sta DOSINI
   731 B087 60			            rts
   732 B088 A2 10		            ldx #$10
   733 B08A A9 03		            lda #$03
   734 B08C 9D 42 03		            sta IOCB0+ICCOM,X
   735 B08F A9 A6		            lda #$A6
   736 B091 9D 44 03		            sta IOCB0+ICBAL,X
   737 B094 A9 06		            lda #$06
   738 B096 9D 45 03		            sta IOCB0+ICBAH,X
   739 B099 A9 0C		            lda #$0C
   740 B09B 9D 4A 03		            sta IOCB0+ICAX1,X
   741 B09E A9 00		            lda #$00
   742 B0A0 9D 4B 03		            sta IOCB0+ICAX2,X
   743 B0A3 4C 56 E4		            jmp CIOV
   744
   745 B0A6 45 3A		            .byte 'E:'
   746 B0A8 9B			            .byte $9B
   747
   748 B0A9 A2 10		            ldx #$10
   749 B0AB 20 B5 06		            jsr L06B5
   750 B0AE A2 20		            ldx #$20
   751 B0B0 20 B5 06		            jsr L06B5
   752 B0B3 A2 30		            ldx #$30
   753 B0B5 A9 0C		            lda #$0C
   754 B0B7 9D 42 03		            sta IOCB0+ICCOM,X
   755 B0BA 4C 56 E4		            jmp CIOV
   756 B0BD 00 00 00 00 00 00 +             .byte $00,$00,$00,$00,$00,$00,$00,$00,$00,$00,$00,$00,$00,$00,$00,$00
   757 B0CD 00 00 00 00 00 00 +             .byte $00,$00,$00,$00,$00,$00,$00,$00,$00,$00,$00,$00,$00,$00,$00,$00
   758 B0DD 00 00 00 00 00 00 +             .byte $00,$00,$00,$00,$00,$00,$00,$00,$00,$00,$00,$00,$00,$00,$00,$00
   759 B0ED 00 00 00 00 00 00 +             .byte $00,$00,$00,$00,$00,$00,$00,$00,$00,$00,$00,$00,$00,$00,$00,$00
   760 B0FD 00 00 00		            .byte $00,$00,$00
   761 				            .endp
   762
   763 B100 00 00 00 00 00 00 + LB100       .byte $00,$00,$00,$00,$00,$00,$00,$00,$00,$00
   764 B10A A9 22		            lda #$22
   765 B10C 8D 2F 02		            sta SDMCTL
   766 B10F A5 14		            lda RTCLOK+2
   767 B111 C5 14		LB111       cmp RTCLOK+2
   768 B113 F0 FC		            beq LB111
   769 B115 A9 22		            lda #$22
   770 B117 8D 08 07		            sta L0708
   771 B11A AD 22 02		            lda VVBLKI
   772 B11D 8D 63 08		            sta L0863
   773 B120 8D 65 08		            sta L0865
   774 B123 AD 23 02		            lda VVBLKI+1
   775 B126 8D 64 08		            sta L0864
   776 B129 8D 66 08		            sta L0866
   777 B12C AD 02 07		            lda L0702
   778 B12F 8D 00 D5		            sta LD500
   779 B132 A0 00		            ldy #$00
   780 B134 B1 45		            lda (FMSZPG+2),Y
   781 B136 C9 FF		            cmp #$FF
   782 B138 D0 0E		            bne LB148
   783 B13A AA			            tax
   784 B13B 20 9D 07		            jsr L079D
   785 B13E C9 FF		            cmp #$FF
   786 B140 D0 10		            bne LB152
   787 B142 20 9D 07		            jsr L079D
   788 B145 4C 36 07		            jmp L0736
   789 B148 85 47		LB148       sta FMSZPG+4
   790 B14A 20 9D 07		            jsr L079D
   791 B14D 85 48		            sta FMSZPG+5
   792 B14F 4C 56 07		            jmp L0756
   793 B152 85 48		LB152       sta FMSZPG+5
   794 B154 86 47		            stx FMSZPG+4
   795 B156 20 9D 07		            jsr L079D
   796 B159 8D 00 07		            sta L0700
   797 B15C 20 9D 07		            jsr L079D
   798 B15F 8D 01 07		            sta L0701
   799 B162 AD 07 07		            lda L0707
   800 B165 D0 0D		            bne LB174
   801 B167 A5 47		            lda FMSZPG+4
   802 B169 8D E0 02		            sta RUNAD
   803 B16C A5 48		            lda FMSZPG+5
   804 B16E 8D E1 02		            sta RUNAD+1
   805 B171 EE 07 07		            inc L0707
   806 B174 20 9D 07		LB174       jsr L079D
   807 B177 91 47		            sta (FMSZPG+4),Y
   808 B179 20 D0 07		            jsr L07D0
   809 B17C F0 08		            beq LB186
   810 B17E 20 9D 07		LB17E       jsr L079D
   811 B181 20 C6 07		            jsr L07C6
   812 B184 D0 F8		            bne LB17E
   813 B186 20 DD 07		LB186       jsr L07DD
   814 B189 20 4E 08		            jsr L084E
   815 B18C D0 09		            bne LB197
   816 B18E 20 30 08		            jsr L0830
   817 B191 20 43 08		            jsr L0843
   818 B194 6C E0 02		            jmp (RUNAD)
   819 B197 20 9D 07		LB197       jsr L079D
   820 B19A 4C 2C 07		            jmp L072C
   821 B19D AD 02 07		            lda L0702
   822 B1A0 8D 00 D5		            sta LD500
   823 B1A3 E6 45		            inc FMSZPG+2
   824 B1A5 D0 15		            bne LB1BC
   825 B1A7 E6 46		            inc FMSZPG+3
   826 B1A9 A5 46		            lda FMSZPG+3
   827 B1AB C9 C0		            cmp #$C0
   828 B1AD D0 0D		            bne LB1BC
   829 B1AF A9 80		            lda #$80
   830 B1B1 85 46		            sta FMSZPG+3
   831 B1B3 EE 02 07		            inc L0702
   832 B1B6 AD 02 07		            lda L0702
   833 B1B9 8D 00 D5		            sta LD500
   834 B1BC B1 45		LB1BC       lda (FMSZPG+2),Y
   835 B1BE 48			            pha
   836 B1BF A9 FF		            lda #$FF
   837 B1C1 8D 00 D5		            sta LD500
   838 B1C4 68			            pla
   839 B1C5 60			            rts
   840 B1C6 48			            pha
   841 B1C7 E6 47		            inc FMSZPG+4
   842 B1C9 D0 02		            bne LB1CD
   843 B1CB E6 48		            inc FMSZPG+5
   844 B1CD 68			LB1CD       pla
   845 B1CE 91 47		            sta (FMSZPG+4),Y
   846 B1D0 A5 48		            lda FMSZPG+5
   847 B1D2 CD 01 07		            cmp L0701
   848 B1D5 D0 05		            bne LB1DC
   849 B1D7 A5 47		            lda FMSZPG+4
   850 B1D9 CD 00 07		            cmp L0700
   851 B1DC 60			LB1DC       rts
   852 B1DD A5 48		            lda FMSZPG+5
   853 B1DF C9 02		            cmp #$02
   854 B1E1 D0 49		            bne LB22C
   855 B1E3 A5 47		            lda FMSZPG+4
   856 B1E5 C9 E3		            cmp #$E3
   857 B1E7 D0 43		            bne LB22C
   858 B1E9 20 30 08		            jsr L0830
   859 B1EC AE 66 08		            ldx L0866
   860 B1EF EC 64 08		            cpx L0864
   861 B1F2 F0 08		            beq LB1FC
   862 B1F4 A9 06		            lda #$06
   863 B1F6 AC 65 08		            ldy L0865
   864 B1F9 20 5C E4		            jsr SETVBV
   865 B1FC 20 2D 08		LB1FC       jsr L082D
   866 B1FF AD 2F 02		            lda SDMCTL
   867 B202 8D 08 07		            sta L0708
   868 B205 AD 23 02		            lda VVBLKI+1
   869 B208 CD 64 08		            cmp L0864
   870 B20B F0 14		            beq LB221
   871 B20D 8D 66 08		            sta L0866
   872 B210 AD 22 02		            lda VVBLKI
   873 B213 8D 65 08		            sta L0865
   874 B216 A9 06		            lda #$06
   875 B218 AC 63 08		            ldy L0863
   876 B21B AE 64 08		            ldx L0864
   877 B21E 20 5C E4		            jsr SETVBV
   878 B221 A9 00		LB221       lda #$00
   879 B223 8D 2F 02		            sta SDMCTL
   880 B226 8D 00 D4		            sta DMACLT
   881 B229 E6 42		            inc CRITIC
   882 B22B 78			            sei
   883 B22C 60			LB22C       rts
   884 B22D 6C E2 02		            jmp (INITAD)
   885 B230 AD 13 D0		            lda TRIG3
   886 B233 8D FA 03		            sta GINTLK
   887 B236 C6 42		            dec CRITIC
   888 B238 AD 08 07		            lda L0708
   889 B23B 8D 2F 02		            sta SDMCTL
   890 B23E 8D 00 D4		            sta DMACLT
   891 B241 58			            cli
   892 B242 60			            rts
   893 B243 A2 80		            ldx #$80
   894 B245 A0 00		            ldy #$00
   895 B247 88			LB247       dey
   896 B248 D0 FD		            bne LB247
   897 B24A CA			            dex
   898 B24B D0 FA		            bne LB247
   899 B24D 60			            rts
   900 B24E AD 02 07		            lda L0702
   901 B251 CD 06 07		            cmp L0706
   902 B254 D0 0C		            bne LB262
   903 B256 A5 46		            lda FMSZPG+3
   904 B258 CD 05 07		            cmp L0705
   905 B25B D0 05		            bne LB262
   906 B25D A5 45		            lda FMSZPG+2
   907 B25F CD 04 07		            cmp L0704
   908 B262 60			LB262       rts
   909 B263 00 00 00 00 00 00 +             .byte $00,$00,$00,$00,$00,$00,$00,$00,$00,$00,$00,$00,$00,$00,$00,$00
   910 B273 00 00 00 00 00 00 +             .byte $00,$00,$00,$00,$00,$00,$00,$00,$00,$00,$00,$00,$00,$00,$00,$00
   911 B283 00 00 00 00 00 00 +             .byte $00,$00,$00,$00,$00,$00,$00,$00,$00,$00,$00,$00,$00,$00,$00,$00
   912 B293 00 00 00 00 00 00 +             .byte $00,$00,$00,$00,$00,$00,$00,$00,$00,$00,$00,$00,$00,$00,$00,$00
   913 B2A3 00 00 00 00 00 00 +             .byte $00,$00,$00,$00,$00,$00,$00,$00,$00,$00,$00,$00,$00,$00,$00,$00
   914 B2B3 00 00 00 00 00 00 +             .byte $00,$00,$00,$00,$00,$00,$00,$00,$00,$00,$00,$00,$00,$00,$00,$00
   915 B2C3 00 00 00 00 00 00 +             .byte $00,$00,$00,$00,$00,$00,$00,$00,$00,$00,$00,$00,$00,$00,$00,$00
   916 B2D3 00 00 00 00 00 00 +             .byte $00,$00,$00,$00,$00,$00,$00,$00,$00,$00,$00,$00,$00,$00,$00,$00
   917 B2E3 00 00 00 00 00 00 +             .byte $00,$00,$00,$00,$00,$00,$00,$00,$00,$00,$00,$00,$00,$00,$00,$00
   918 B2F3 00 00 00 00 00 00 +             .byte $00,$00,$00,$00,$00,$00,$00,$00,$00,$00,$00,$00,$00
   919 B300 00 00 00 00 00 00 + LB300       .byte $00,$00,$00,$00,$00,$00,$00,$00,$00,$00
   920 B30A A9 22		            lda #$22
   921 B30C 8D 2F 02		            sta SDMCTL
   922 B30F A5 14		            lda RTCLOK+2
   923 B311 C5 14		LB311       cmp RTCLOK+2
   924 B313 F0 FC		            beq LB311
   925 B315 A9 22		            lda #$22
   926 B317 8D 08 04		            sta L0408
   927 B31A AD 22 02		            lda VVBLKI
   928 B31D 8D 7B 05		            sta L057B
   929 B320 8D 7D 05		            sta L057D
   930 B323 AD 23 02		            lda VVBLKI+1
   931 B326 8D 7C 05		            sta L057C
   932 B329 8D 7E 05		            sta L057E
   933 B32C AD 02 04		            lda L0402
   934 B32F 8D A6 D5		            sta LD5A6
   935 B332 8D A1 D5		            sta LD5A1
   936 B335 8D 00 D5		            sta LD500
   937 B338 A0 00		            ldy #$00
   938 B33A B1 45		            lda (FMSZPG+2),Y
   939 B33C C9 FF		            cmp #$FF
   940 B33E D0 0E		            bne LB34E
   941 B340 AA			            tax
   942 B341 20 A3 04		            jsr L04A3
   943 B344 C9 FF		            cmp #$FF
   944 B346 D0 10		            bne LB358
   945 B348 20 A3 04		            jsr L04A3
   946 B34B 4C 3C 04		            jmp L043C
   947 B34E 85 47		LB34E       sta FMSZPG+4
   948 B350 20 A3 04		            jsr L04A3
   949 B353 85 48		            sta FMSZPG+5
   950 B355 4C 5C 04		            jmp L045C
   951 B358 85 48		LB358       sta FMSZPG+5
   952 B35A 86 47		            stx FMSZPG+4
   953 B35C 20 A3 04		            jsr L04A3
   954 B35F 8D 00 04		            sta L0400
   955 B362 20 A3 04		            jsr L04A3
   956 B365 8D 01 04		            sta L0401
   957 B368 AD 07 04		            lda L0407
   958 B36B D0 0D		            bne LB37A
   959 B36D A5 47		            lda FMSZPG+4
   960 B36F 8D E0 02		            sta RUNAD
   961 B372 A5 48		            lda FMSZPG+5
   962 B374 8D E1 02		            sta RUNAD+1
   963 B377 EE 07 04		            inc L0407
   964 B37A 20 A3 04		LB37A       jsr L04A3
   965 B37D 91 47		            sta (FMSZPG+4),Y
   966 B37F 20 E8 04		            jsr L04E8
   967 B382 F0 08		            beq LB38C
   968 B384 20 A3 04		LB384       jsr L04A3
   969 B387 20 DE 04		            jsr L04DE
   970 B38A D0 F8		            bne LB384
   971 B38C 20 F5 04		LB38C       jsr L04F5
   972 B38F 20 66 05		            jsr L0566
   973 B392 D0 09		            bne LB39D
   974 B394 20 48 05		            jsr L0548
   975 B397 20 5B 05		            jsr L055B
   976 B39A 6C E0 02		            jmp (RUNAD)
   977 B39D 20 A3 04		LB39D       jsr L04A3
   978 B3A0 4C 2C 04		            jmp L042C
   979 B3A3 AD 02 04		            lda L0402
   980 B3A6 8D 00 D5		            sta LD500
   981 B3A9 8D A6 D5		            sta LD5A6
   982 B3AC 8D A1 D5		            sta LD5A1
   983 B3AF E6 45		            inc FMSZPG+2
   984 B3B1 D0 1B		            bne LB3CE
   985 B3B3 E6 46		            inc FMSZPG+3
   986 B3B5 A5 46		            lda FMSZPG+3
   987 B3B7 C9 C0		            cmp #$C0
   988 B3B9 D0 13		            bne LB3CE
   989 B3BB A9 80		            lda #$80
   990 B3BD 85 46		            sta FMSZPG+3
   991 B3BF EE 02 04		            inc L0402
   992 B3C2 AD 02 04		            lda L0402
   993 B3C5 8D 00 D5		            sta LD500
   994 B3C8 8D A3 D5		            sta LD5A3
   995 B3CB 8D A7 D5		            sta LD5A7
   996 B3CE B1 45		LB3CE       lda (FMSZPG+2),Y
   997 B3D0 48			            pha
   998 B3D1 A9 FF		            lda #$FF
   999 B3D3 8D 00 D5		            sta LD500
  1000 B3D6 8D A5 D5		            sta LD5A5
  1001 B3D9 8D A2 D5		            sta LD5A2
  1002 B3DC 68			            pla
  1003 B3DD 60			            rts
  1004 B3DE 48			            pha
  1005 B3DF E6 47		            inc FMSZPG+4
  1006 B3E1 D0 02		            bne LB3E5
  1007 B3E3 E6 48		            inc FMSZPG+5
  1008 B3E5 68			LB3E5       pla
  1009 B3E6 91 47		            sta (FMSZPG+4),Y
  1010 B3E8 A5 48		            lda FMSZPG+5
  1011 B3EA CD 01 04		            cmp L0401
  1012 B3ED D0 05		            bne LB3F4
  1013 B3EF A5 47		            lda FMSZPG+4
  1014 B3F1 CD 00 04		            cmp L0400
  1015 B3F4 60			LB3F4       rts
  1016 B3F5 A5 48		            lda FMSZPG+5
  1017 B3F7 C9 02		            cmp #$02
  1018 B3F9 D0 49		            bne LB444
  1019 B3FB A5 47		            lda FMSZPG+4
  1020 B3FD C9 E3		            cmp #$E3
  1021 B3FF D0 43		            bne LB444
  1022 B401 20 48 05		            jsr L0548
  1023 B404 AE 7E 05		            ldx L057E
  1024 B407 EC 7C 05		            cpx L057C
  1025 B40A F0 08		            beq LB414
  1026 B40C A9 06		            lda #$06
  1027 B40E AC 7D 05		            ldy L057D
  1028 B411 20 5C E4		            jsr SETVBV
  1029 B414 20 45 05		LB414       jsr L0545
  1030 B417 AD 2F 02		            lda SDMCTL
  1031 B41A 8D 08 04		            sta L0408
  1032 B41D AD 23 02		            lda VVBLKI+1
  1033 B420 CD 7C 05		            cmp L057C
  1034 B423 F0 14		            beq LB439
  1035 B425 8D 7E 05		            sta L057E
  1036 B428 AD 22 02		            lda VVBLKI
  1037 B42B 8D 7D 05		            sta L057D
  1038 B42E A9 06		            lda #$06
  1039 B430 AC 7B 05		            ldy L057B
  1040 B433 AE 7C 05		            ldx L057C
  1041 B436 20 5C E4		            jsr SETVBV
  1042 B439 A9 00		LB439       lda #$00
  1043 B43B 8D 2F 02		            sta SDMCTL
  1044 B43E 8D 00 D4		            sta DMACLT
  1045 B441 E6 42		            inc CRITIC
  1046 B443 78			            sei
  1047 B444 60			LB444       rts
  1048 B445 6C E2 02		            jmp (INITAD)
  1049 B448 AD 13 D0		            lda TRIG3
  1050 B44B 8D FA 03		            sta GINTLK
  1051 B44E C6 42		            dec CRITIC
  1052 B450 AD 08 04		            lda L0408
  1053 B453 8D 2F 02		            sta SDMCTL
  1054 B456 8D 00 D4		            sta DMACLT
  1055 B459 58			            cli
  1056 B45A 60			            rts
  1057 B45B A2 80		            ldx #$80
  1058 B45D A0 00		            ldy #$00
  1059 B45F 88			LB45F       dey
  1060 B460 D0 FD		            bne LB45F
  1061 B462 CA			            dex
  1062 B463 D0 FA		            bne LB45F
  1063 B465 60			            rts
  1064 B466 AD 02 04		            lda L0402
  1065 B469 CD 06 04		            cmp L0406
  1066 B46C D0 0C		            bne LB47A
  1067 B46E A5 46		            lda FMSZPG+3
  1068 B470 CD 05 04		            cmp L0405
  1069 B473 D0 05		            bne LB47A
  1070 B475 A5 45		            lda FMSZPG+2
  1071 B477 CD 04 04		            cmp L0404
  1072 B47A 60			LB47A       rts
  1073 B47B 00 00 00 00 00	            .byte $00,$00,$00,$00,$00
  1074 B480 AD 00 03		LB480       lda DDEVIC
  1075 B483 C9 31		            cmp #$31
  1076 B485 D0 07		            bne LB48E
  1077 B487 AD 01 03		            lda DUNIT
  1078 B48A C9 01		            cmp #$01
  1079 B48C F0 05		            beq LB493
  1080 B48E E6 42		LB48E       inc CRITIC
  1081 B490 4C 38 C9		            jmp LC938
  1082 B493 AD 31 CE		LB493       lda LCE31
  1083 B496 D0 F6		            bne LB48E
  1084 B498 A9 80		            lda #$80
  1085 B49A 85 32		            sta BUFRLO
  1086 B49C A9 CE		            lda #$CE
  1087 B49E 85 33		            sta BUFRHI
  1088 B4A0 AE F8 CE		            ldx LCEF8
  1089 B4A3 F0 0A		            beq LB4AF
  1090 B4A5 A5 32		            lda BUFRLO
  1091 B4A7 18			            clc
  1092 B4A8 69 09		LB4A8       adc #$09
  1093 B4AA 85 32		            sta BUFRLO
  1094 B4AC CA			            dex
  1095 B4AD D0 F9		            bne LB4A8
  1096 B4AF AD 02 03		LB4AF       lda DCOMND
  1097 B4B2 C9 53		            cmp #$53
  1098 B4B4 D0 03		            bne LB4B9
  1099 B4B6 4C CD CD		            jmp LCDCD
  1100 B4B9 C9 50		LB4B9       cmp #$50
  1101 B4BB D0 03		            bne LB4C0
  1102 B4BD 4C 92 CC		LB4BD       jmp LCC92
  1103 B4C0 C9 57		LB4C0       cmp #$57
  1104 B4C2 F0 F9		            beq LB4BD
  1105 B4C4 C9 52		            cmp #$52
  1106 B4C6 F0 06		            beq LB4CE
  1107 B4C8 A0 F0		            ldy #$F0
  1108 B4CA 8C 03 03		            sty DSTATS
  1109 B4CD 60			            rts
  1110 B4CE AD 0A 03		LB4CE       lda DAUX1
  1111 B4D1 0D 0B 03		            ora DAUX2
  1112 B4D4 D0 0B		            bne LB4E1
  1113 B4D6 4C A6 CC		LB4D6       jmp LCCA6
  1114 B4D9 AD 86 CE		LB4D9       lda LCE86
  1115 B4DC CD 0A 03		            cmp DAUX1
  1116 B4DF B0 0A		            bcs LB4EB
  1117 B4E1 AD 87 CE		LB4E1       lda LCE87
  1118 B4E4 CD 0B 03		            cmp DAUX2
  1119 B4E7 F0 F0		            beq LB4D9
  1120 B4E9 90 EB		            bcc LB4D6
  1121 B4EB AD 0B 03		LB4EB       lda DAUX2
  1122 B4EE D0 2D		            bne LB51D
  1123 B4F0 AD 0A 03		            lda DAUX1
  1124 B4F3 C9 04		            cmp #$04
  1125 B4F5 B0 26		            bcs LB51D
  1126 B4F7 A0 00		            ldy #$00
  1127 B4F9 20 C0 CD		            jsr LCDC0
  1128 B4FC AD 0A 03		            lda DAUX1
  1129 B4FF 8D F1 CE		            sta LCEF1
  1130 B502 AD 0B 03		            lda DAUX2
  1131 B505 8D F2 CE		            sta LCEF2
  1132 B508 CE F1 CE		            dec LCEF1
  1133 B50B 18			            clc
  1134 B50C 20 25 CD		            jsr LCD25
  1135 B50F 20 B1 CC		            jsr LCCB1
  1136 B512 A2 FE		            ldx #$FE
  1137 B514 A9 00		            lda #$00
  1138 B516 A0 01		            ldy #$01
  1139 B518 8C 03 03		            sty DSTATS
  1140 B51B 38			            sec
  1141 B51C 60			            rts
  1142 B51D A0 03		LB51D       ldy #$03
  1143 B51F 20 C0 CD		            jsr LCDC0
  1144 B522 38			            sec
  1145 B523 4C 8C CC		            jmp LCC8C
  1146 B526 A2 FE		            ldx #$FE
  1147 B528 A9 00		            lda #$00
  1148 B52A A0 8B		            ldy #$8B
  1149 B52C 8C 03 03		            sty DSTATS
  1150 B52F 38			            sec
  1151 B530 60			            rts
  1152 B531 E6 42		            inc CRITIC
  1153 B533 A0 00		            ldy #$00
  1154 B535 A6 34		            ldx BFENLO
  1155 B537 AD 0B D4		LB537       lda VCOUNT
  1156 B53A CD F9 CE		            cmp LCEF9
  1157 B53D D0 F8		            bne LB537
  1158 B53F 8E 00 D5		            stx LD500
  1159 B542 B9 00 CF		LB542       lda LCF00,Y
  1160 B545 99 00 CF		            sta LCF00,Y
  1161 B548 C8			            iny
  1162 B549 10 F7		            bpl LB542
  1163 B54B A9 FF		            lda #$FF
  1164 B54D 8D 00 D5		            sta LD500
  1165 B550 AD 09 03		            lda DBYTHI
  1166 B553 F0 2F		            beq LB584
  1167 B555 AD F6 CC		            lda LCCF6
  1168 B558 C9 BF		            cmp #$BF
  1169 B55A D0 0D		            bne LB569
  1170 B55C AD F5 CC		            lda LCCF5
  1171 B55F C9 80		            cmp #$80
  1172 B561 D0 06		            bne LB569
  1173 B563 A9 7F		            lda #$7F
  1174 B565 8D F6 CC		            sta LCCF6
  1175 B568 E8			            inx
  1176 B569 AD 0B D4		LB569       lda VCOUNT
  1177 B56C CD F9 CE		            cmp LCEF9
  1178 B56F D0 F8		            bne LB569
  1179 B571 8E 00 D5		            stx LD500
  1180 B574 B9 00 CF		LB574       lda LCF00,Y
  1181 B577 99 00 CF		            sta LCF00,Y
  1182 B57A C8			            iny
  1183 B57B 30 F7		            bmi LB574
  1184 B57D A9 FF		            lda #$FF
  1185 B57F 8D 00 D5		            sta LD500
  1186 B582 A9 00		            lda #$00
  1187 B584 85 42		LB584       sta CRITIC
  1188 B586 AD 04 03		            lda DBUFLO
  1189 B589 85 32		            sta BUFRLO
  1190 B58B AD 05 03		            lda DBUFHI
  1191 B58E 85 33		            sta BUFRHI
  1192 B590 A0 00		            ldy #$00
  1193 B592 A2 80		            ldx #$80
  1194 B594 AD 09 03		            lda DBYTHI
  1195 B597 F0 02		            beq LB59B
  1196 B599 A2 00		            ldx #$00
  1197 B59B B9 00 CF		LB59B       lda LCF00,Y
  1198 B59E 91 32		            sta (BUFRLO),Y
  1199 B5A0 C8			            iny
  1200 B5A1 CA			            dex
  1201 B5A2 D0 F7		            bne LB59B
  1202 B5A4 60			            rts
  1203 B5A5 90 1C		            bcc LB5C3
  1204 B5A7 AD 0A 03		            lda DAUX1
  1205 B5AA E9 04		            sbc #$04
  1206 B5AC 8D F1 CE		            sta LCEF1
  1207 B5AF AD 0B 03		            lda DAUX2
  1208 B5B2 E9 00		            sbc #$00
  1209 B5B4 8D F2 CE		            sta LCEF2
  1210 B5B7 A9 00		            lda #$00
  1211 B5B9 8D F4 CE		            sta LCEF4
  1212 B5BC A0 08		            ldy #$08
  1213 B5BE B1 32		            lda (BUFRLO),Y
  1214 B5C0 4A			            lsr
  1215 B5C1 B0 12		            bcs LB5D5
  1216 B5C3 A9 00		LB5C3       lda #$00
  1217 B5C5 8D F4 CE		            sta LCEF4
  1218 B5C8 4E F2 CE		            lsr LCEF2
  1219 B5CB 6E F1 CE		            ror LCEF1
  1220 B5CE 90 05		            bcc LB5D5
  1221 B5D0 A9 80		            lda #$80
  1222 B5D2 8D F4 CE		            sta LCEF4
  1223 B5D5 A9 00		LB5D5       lda #$00
  1224 B5D7 8D F3 CE		            sta LCEF3
  1225 B5DA A0 06		            ldy #$06
  1226 B5DC 4E F2 CE		LB5DC       lsr LCEF2
  1227 B5DF 6E F1 CE		            ror LCEF1
  1228 B5E2 6E F3 CE		            ror LCEF3
  1229 B5E5 88			            dey
  1230 B5E6 D0 F4		            bne LB5DC
  1231 B5E8 4E F3 CE		            lsr LCEF3
  1232 B5EB 4E F3 CE		            lsr LCEF3
  1233 B5EE AE F1 CE		            ldx LCEF1
  1234 B5F1 A0 01		            ldy #$01
  1235 B5F3 B9 34 00		            lda BFENLO,Y
  1236 B5F6 29 7F		            and #$7F
  1237 B5F8 8D F5 CE		            sta LCEF5
  1238 B5FB 88			            dey
  1239 B5FC B9 34 00		            lda BFENLO,Y
  1240 B5FF 18			            clc
  1241 B600 6D F4 CE		            adc LCEF4
  1242 B603 8D F1 CE		            sta LCEF1
  1243 B606 AD F5 CE		            lda LCEF5
  1244 B609 6D F3 CE		            adc LCEF3
  1245 B60C 8D F2 CE		            sta LCEF2
  1246 B60F 29 40		            and #$40
  1247 B611 F0 01		            beq LB614
  1248 B613 E8			            inx
  1249 B614 AD F2 CE		LB614       lda LCEF2
  1250 B617 29 3F		            and #$3F
  1251 B619 09 80		            ora #$80
  1252 B61B 8D F2 CE		            sta LCEF2
  1253 B61E 8A			            txa
  1254 B61F A0 02		            ldy #$02
  1255 B621 18			            clc
  1256 B622 79 34 00		            adc BFENLO,Y
  1257 B625 8D F3 CE		            sta LCEF3
  1258 B628 AD F1 CE		            lda LCEF1
  1259 B62B 8D C3 CC		            sta LCCC3
  1260 B62E 8D F5 CC		            sta LCCF5
  1261 B631 AD F2 CE		            lda LCEF2
  1262 B634 8D C4 CC		            sta LCCC4
  1263 B637 8D F6 CC		            sta LCCF6
  1264 B63A AD F3 CE		            lda LCEF3
  1265 B63D 85 34		            sta BFENLO
  1266 B63F 60			            rts
  1267 B640 A2 00		            ldx #$00
  1268 B642 B1 32		LB642       lda (BUFRLO),Y
  1269 B644 95 34		            sta BFENLO,X
  1270 B646 C8			            iny
  1271 B647 E8			            inx
  1272 B648 E0 03		            cpx #$03
  1273 B64A D0 F6		            bne LB642
  1274 B64C 60			            rts
  1275 B64D A0 08		            ldy #$08
  1276 B64F B1 32		            lda (BUFRLO),Y
  1277 B651 29 FE		            and #$FE
  1278 B653 8D EA 02		            sta DVSTAT
  1279 B656 A9 FF		            lda #$FF
  1280 B658 8D EB 02		            sta DVSTAT+1
  1281 B65B A9 01		            lda #$01
  1282 B65D 8D EC 02		            sta DVSTAT+2
  1283 B660 A9 00		            lda #$00
  1284 B662 8D ED 02		            sta DVSTAT+3
  1285 B665 8D 03 03		            sta DSTATS
  1286 B668 A8			            tay
  1287 B669 60			            rts
  1288 B66A 8E F6 CE		            stx LCEF6
  1289 B66D 8A			            txa
  1290 B66E AE F7 CE		            ldx LCEF7
  1291 B671 DD 29 CE		LB671       cmp LCE29,X
  1292 B674 F0 11		            beq LB687
  1293 B676 CA			            dex
  1294 B677 10 F8		            bpl LB671
  1295 B679 C9 F0		            cmp #$F0
  1296 B67B F0 1A		            beq LB697
  1297 B67D C9 F4		            cmp #$F4
  1298 B67F F0 1D		            beq LB69E
  1299 B681 AE F6 CE		            ldx LCEF6
  1300 B684 4C 11 CE		            jmp LCE11
  1301 B687 8E F8 CE		LB687       stx LCEF8
  1302 B68A A9 00		            lda #$00
  1303 B68C 8D 31 CE		            sta LCE31
  1304 B68F A2 FF		LB68F       ldx #$FF
  1305 B691 8E FC 02		            stx CH
  1306 B694 4C 6A FC		            jmp LFC6A
  1307 B697 A9 0B		LB697       lda #$0B
  1308 B699 8D 31 CE		            sta LCE31
  1309 B69C D0 F1		            bne LB68F
  1310 B69E A9 00		LB69E       lda #$00
  1311 B6A0 8D 31 CE		            sta LCE31
  1312 B6A3 8D F8 CE		            sta LCEF8
  1313 B6A6 4C 77 E4		            jmp COLDSV
  1314 B6A9 DF DE DA D8 DD DB +             .byte $DF,$DE,$DA,$D8,$DD,$DB,$F3,$F5,$00,$00,$00,$00,$00,$00,$00,$00
  1315 B6B9 00 00 00 00 00 00 +             .byte $00,$00,$00,$00,$00,$00,$00,$00,$00,$00,$00,$00,$00,$00,$00,$00
  1316 B6C9 00 00 00 00 00 00 +             .byte $00,$00,$00,$00,$00,$00,$00,$00,$00,$00,$00,$00,$00,$00,$00,$00
  1317 B6D9 00 00 00 00 00 00 +             .byte $00,$00,$00,$00,$00,$00,$00,$00,$00,$00,$00,$00,$00,$00,$00,$00
  1318 B6E9 00 00 00 00 00 00 +             .byte $00,$00,$00,$00,$00,$00,$00,$00,$00,$00,$00,$00,$00,$00,$00,$00
  1319 B6F9 00 00 00 00 00 00 +             .byte $00,$00,$00,$00,$00,$00,$00
  1320 B700 A5 6A		LB700       lda RAMTOP
  1321 B702 C9 80		            cmp #$80
  1322 B704 F0 0D		            beq LB713
  1323 B706 A9 36		            lda #$36
  1324 B708 8D 30 02		            sta SDLSTL
  1325 B70B A9 BE		            lda #$BE
  1326 B70D 8D 31 02		            sta SDLSTH
  1327 B710 4C 10 B7		LB710       jmp LB710
  1328 B713 AD 1F D0		LB713       lda CONSOL
  1329 B716 C9 03		            cmp #$03
  1330 B718 D0 24		            bne LB73E
  1331 B71A A9 00		            lda #$00
  1332 B71C 8D 2F 02		            sta SDMCTL
  1333 B71F 8D 00 D4		            sta DMACLT
  1334 B722 E6 42		            inc CRITIC
  1335 B724 78			            sei
  1336 B725 A0 40		            ldy #$40
  1337 B727 B9 38 B7		LB727       lda LB738,Y
  1338 B72A 99 00 06		            sta L0600,Y
  1339 B72D 88			            dey
  1340 B72E 10 F7		            bpl LB727
  1341 B730 A9 FF		            lda #$FF
  1342 B732 8D 44 02		            sta COLDST
  1343 B735 4C 00 06		            jmp L0600
  1344 B738 8D 00 D5		LB738       sta LD500
  1345 B73B 4C 77 E4		            jmp COLDSV
  1346 B73E A9 00		LB73E       lda #$00
  1347 B740 8D 0E D4		            sta NMIEN
  1348 B743 20 65 BD		            jsr LBD65
  1349 B746 A9 01		            lda #$01
  1350 B748 8D F8 03		            sta BASICF
  1351 B74B AD 00 02		            lda VDSLST
  1352 B74E 8D 25 7C		            sta old_dli_L7C25
  1353 B751 AD 01 02		            lda VDSLST+1
  1354 B754 8D 26 7C		            sta old_dli_L7C25+1
  1355 B757 A9 70		            lda #$70
  1356 B759 8D 00 02		            sta VDSLST
  1357 B75C A9 BD		            lda #$BD
  1358 B75E 8D 01 02		            sta VDSLST+1
  1359 B761 A9 C5		            lda #$C5
  1360 B763 8D 30 02		            sta SDLSTL
  1361 B766 8D 02 D4		            sta DLISTL
  1362 B769 A9 BE		            lda #$BE
  1363 B76B 8D 31 02		            sta SDLSTH
  1364 B76E 8D 03 D4		            sta DLISTH
  1365 B771 A9 C0		            lda #$C0
  1366 B773 8D 0E D4		            sta NMIEN
  1367 B776 A9 00		            lda #$00
  1368 B778 8D 08 07		            sta L0708
  1369 B77B 8D 20 7C		            sta L7C20
  1370 B77E 8D 21 7C		            sta L7C21
  1371 B781 8D 22 7C		            sta L7C22
  1372 B784 8D 23 7C		            sta L7C23
  1373 B787 8D C6 02		            sta COLOR2
  1374 B78A 8D 24 7C		            sta L7C24
  1375 B78D A9 3E		            lda #$3E
  1376 B78F 8D C5 02		            sta COLOR1
  1377 B792 20 19 BD		            jsr LBD19
  1378 B795 20 04 BD		            jsr LBD04
  1379 B798 20 C8 BC		            jsr LBCC8
  1380 B79B 20 EC BC		            jsr LBCEC
  1381 B79E 20 89 BC		            jsr LBC89
  1382 B7A1 20 53 BC		            jsr LBC53
  1383 B7A4 A2 00		            ldx #$00
  1384 B7A6 20 F9 BC		            jsr LBCF9
  1385 B7A9 20 3B BC		            jsr LBC3B
  1386 B7AC 20 57 BB		            jsr LBB57
  1387 B7AF 30 3C		            bmi LB7ED
  1388 B7B1 A9 FF		LB7B1       lda #$FF
  1389 B7B3 8D FC 02		            sta CH
  1390 B7B6 AD FC 02		LB7B6       lda CH
  1391 B7B9 A2 0F		            ldx #$0F
  1392 B7BB DD DE BD		LB7BB       cmp LBDDE,X
  1393 B7BE F0 2D		            beq LB7ED
  1394 B7C0 CA			            dex
  1395 B7C1 10 F8		            bpl LB7BB
  1396 B7C3 A2 03		            ldx #$03
  1397 B7C5 DD EE BD		LB7C5       cmp LBDEE,X
  1398 B7C8 F0 05		            beq LB7CF
  1399 B7CA CA			            dex
  1400 B7CB 10 F8		            bpl LB7C5
  1401 B7CD 30 0D		            bmi LB7DC
  1402 B7CF BD F2 BD		LB7CF       lda LBDF2,X
  1403 B7D2 8D 08 07		            sta L0708
  1404 B7D5 A9 FF		            lda #$FF
  1405 B7D7 8D FC 02		            sta CH
  1406 B7DA 30 04		            bmi LB7E0
  1407 B7DC C9 0C		LB7DC       cmp #$0C
  1408 B7DE F0 0A		            beq LB7EA
  1409 B7E0 20 8B BB		LB7E0       jsr LBB8B
  1410 B7E3 AD 10 D0		            lda TRIG0
  1411 B7E6 49 01		            eor #$01
  1412 B7E8 F0 CC		            beq LB7B6
  1413 B7EA AE 20 7C		LB7EA       ldx L7C20
  1414 B7ED 8E 20 7C		LB7ED       stx L7C20
  1415 B7F0 20 61 BB		            jsr LBB61
  1416 B7F3 20 F5 BC		test        jsr LBCF5
  1417 B7F6 AE 21 7C		            ldx L7C21
  1418 B7F9 E0 00		            cpx #$00
  1419 B7FB F0 03		            beq LB800
  1420 B7FD 20 19 BC		            jsr LBC19
  1421 B800 AE 20 7C		LB800       ldx L7C20
  1422 B803 E0 00		            cpx #$00
  1423 B805 F0 16		            beq LB81D
  1424 B807 20 2A BC		            jsr LBC2A
  1425 B80A A0 07		            ldy #$07
  1426 B80C B1 47		            lda (FMSZPG+4),Y
  1427 B80E C9 FF		            cmp #$FF
  1428 B810 F0 08		            beq LB81A
  1429 B812 A0 03		            ldy #$03
  1430 B814 B1 47		            lda (FMSZPG+4),Y
  1431 B816 29 20		            and #$20
  1432 B818 F0 03		            beq LB81D
  1433 B81A 4C B1 B7		LB81A       jmp LB7B1
  1434 B81D A0 01		LB81D       ldy #$01
  1435 B81F B1 47		LB81F       lda (FMSZPG+4),Y
  1436 B821 99 45 00		            sta FMSZPG+2,Y
  1437 B824 88			            dey
  1438 B825 10 F8		            bpl LB81F
  1439 B827 A0 02		            ldy #$02
  1440 B829 B1 47		            lda (FMSZPG+4),Y
  1441 B82B 8D 02 07		            sta L0702
  1442 B82E C8			            iny
  1443 B82F B1 47		            lda (FMSZPG+4),Y
  1444 B831 8D 03 07		            sta L0703
  1445 B834 C8			            iny
  1446 B835 B1 47		            lda (FMSZPG+4),Y
  1447 B837 8D 04 07		            sta L0704
  1448 B83A C8			            iny
  1449 B83B B1 47		            lda (FMSZPG+4),Y
  1450 B83D 8D 05 07		            sta L0705
  1451 B840 C8			            iny
  1452 B841 B1 47		            lda (FMSZPG+4),Y
  1453 B843 8D 06 07		            sta L0706
  1454 B846 A9 FF		            lda #$FF
  1455 B848 8D FC 02		            sta CH
  1456 B84B A9 00		            lda #$00
  1457 B84D 85 4D		            sta ATRACT
  1458 B84F 8D 0E D4		            sta NMIEN
  1459 B852 20 65 BD		            jsr LBD65
  1460 B855 AD 25 7C		            lda old_dli_L7C25
  1461 B858 8D 00 02		            sta VDSLST
  1462 B85B AD 26 7C		            lda old_dli_L7c25+1
  1463 B85E 8D 01 02		            sta VDSLST+1
  1464 B861 A9 C0		            lda #$C0
  1465 B863 8D 0E D4		            sta NMIEN
  1466 B866 A0 00		            ldy #$00
  1467 B868 B9 00 B0		LB868       lda LB000,Y
  1468 B86B 99 00 06		            sta L0600,Y
  1469 B86E 88			            dey
  1470 B86F D0 F7		            bne LB868
  1471 B871 20 00 06		            jsr L0600
  1472 B874 A0 00		            ldy #$00
  1473 B876 98			            tya
  1474 B877 99 00 06		LB877       sta L0600,Y
  1475 B87A 88			            dey
  1476 B87B D0 FA		            bne LB877
  1477 B87D A0 0A		            ldy #$0A
  1478 B87F AE 03 07		            ldx L0703
  1479 B882 8A			            txa
  1480 B883 29 10		            and #$10
  1481 B885 D0 65		            bne LB8EC
  1482 B887 8A			            txa
  1483 B888 29 08		            and #$08
  1484 B88A D0 44		            bne LB8D0
  1485 B88C 8A			            txa
  1486 B88D 29 0F		            and #$0F
  1487 B88F D0 15		            bne LB8A6
  1488 B891 B9 00 B1		LB891       lda LB100,Y
  1489 B894 99 00 07		            sta L0700,Y
  1490 B897 C8			            iny
  1491 B898 D0 F7		            bne LB891
  1492 B89A B9 00 B2		LB89A       lda LB200,Y
  1493 B89D 99 00 08		            sta L0800,Y
  1494 B8A0 C8			            iny
  1495 B8A1 D0 F7		            bne LB89A
  1496 B8A3 4C 0A 07		            jmp L070A
  1497 B8A6 B9 00 B3		LB8A6       lda LB300,Y
  1498 B8A9 99 00 04		            sta L0400,Y
  1499 B8AC C8			            iny
  1500 B8AD D0 F7		            bne LB8A6
  1501 B8AF B9 00 B4		LB8AF       lda LB400,Y
  1502 B8B2 99 00 05		            sta L0500,Y
  1503 B8B5 C8			            iny
  1504 B8B6 D0 F7		            bne LB8AF
  1505 B8B8 A0 09		            ldy #$09
  1506 B8BA A2 09		            ldx #$09
  1507 B8BC B9 00 07		LB8BC       lda L0700,Y
  1508 B8BF 99 00 04		            sta L0400,Y
  1509 B8C2 88			            dey
  1510 B8C3 10 F7		            bpl LB8BC
  1511 B8C5 A9 00		            lda #$00
  1512 B8C7 9D 00 07		LB8C7       sta L0700,X
  1513 B8CA CA			            dex
  1514 B8CB 10 FA		            bpl LB8C7
  1515 B8CD 4C 0A 04		            jmp L040A
  1516 B8D0 A0 40		LB8D0       ldy #$40
  1517 B8D2 AE 02 07		            ldx L0702
  1518 B8D5 B9 38 B7		LB8D5       lda LB738,Y
  1519 B8D8 99 00 04		            sta L0400,Y
  1520 B8DB 88			            dey
  1521 B8DC 10 F7		            bpl LB8D5
  1522 B8DE A0 14		            ldy #$14
  1523 B8E0 A9 00		            lda #$00
  1524 B8E2 99 00 07		LB8E2       sta L0700,Y
  1525 B8E5 88			            dey
  1526 B8E6 10 FA		            bpl LB8E2
  1527 B8E8 8A			            txa
  1528 B8E9 4C 00 04		            jmp L0400
  1529 B8EC A0 00		LB8EC       ldy #$00
  1530 B8EE AD 00 CC		            lda LCC00
  1531 B8F1 18			            clc
  1532 B8F2 79 01 CC		LB8F2       adc LCC01,Y
  1533 B8F5 C8			            iny
  1534 B8F6 D0 FA		            bne LB8F2
  1535 B8F8 79 33 C9		LB8F8       adc LC933,Y
  1536 B8FB C8			            iny
  1537 B8FC C0 20		            cpy #$20
  1538 B8FE D0 F8		            bne LB8F8
  1539 B900 C9 E6		            cmp #$E6
  1540 B902 F0 3E		            beq LB942
  1541 B904 A0 00		            ldy #$00
  1542 B906 B9 92 BE		LB906       lda LBE92,Y
  1543 B909 99 00 06		            sta L0600,Y
  1544 B90C B9 1B B9		            lda LB91B,Y
  1545 B90F 99 00 07		            sta L0700,Y
  1546 B912 C8			            iny
  1547 B913 D0 F1		            bne LB906
  1548 B915 20 77 BC		            jsr LBC77
  1549 B918 4C 00 07		            jmp L0700
  1550 B91B A9 00		LB91B       lda #$00
  1551 B91D 8D 30 02		            sta SDLSTL
  1552 B920 8D 02 D4		            sta DLISTL
  1553 B923 A9 06		            lda #$06
  1554 B925 8D 31 02		            sta SDLSTH
  1555 B928 8D 03 D4		            sta DLISTH
  1556 B92B A9 FF		            lda #$FF
  1557 B92D 8D 00 D5		            sta LD500
  1558 B930 A9 22		            lda #$22
  1559 B932 8D 2F 02		            sta SDMCTL
  1560 B935 8D 00 D4		            sta DMACLT
  1561 B938 A9 40		            lda #$40
  1562 B93A 8D 0E D4		            sta NMIEN
  1563 B93D 58			            cli
  1564 B93E A9 00		            lda #$00
  1565 B940 F0 FE		LB940       beq LB940
  1566 B942 20 BB BA		LB942       jsr LBABB
  1567 B945 20 57 BA		            jsr LBA57
  1568 B948 AD 03 07		            lda L0703
  1569 B94B 29 07		            and #$07
  1570 B94D 8D 03 07		            sta L0703
  1571 B950 8D F7 CE		            sta LCEF7
  1572 B953 A9 80		            lda #$80
  1573 B955 85 32		            sta BUFRLO
  1574 B957 A9 CE		            lda #$CE
  1575 B959 85 33		            sta BUFRHI
  1576 B95B 20 7A BA		LB95B       jsr LBA7A
  1577 B95E 20 97 B9		            jsr LB997
  1578 B961 A2 01		            ldx #$01
  1579 B963 20 2A BC		            jsr LBC2A
  1580 B966 18			            clc
  1581 B967 A5 32		            lda BUFRLO
  1582 B969 69 09		            adc #$09
  1583 B96B 85 32		            sta BUFRLO
  1584 B96D CE 03 07		            dec L0703
  1585 B970 10 E9		            bpl LB95B
  1586 B972 A9 4C		            lda #$4C
  1587 B974 8D 33 C9		            sta LC933
  1588 B977 A9 00		            lda #$00
  1589 B979 8D 34 C9		            sta LC934
  1590 B97C A9 CC		            lda #$CC
  1591 B97E 8D 35 C9		            sta LC935
  1592 B981 A0 30		            ldy #$30
  1593 B983 B9 8F B9		LB983       lda LB98F,Y
  1594 B986 99 00 06		            sta L0600,Y
  1595 B989 88			            dey
  1596 B98A 10 F7		            bpl LB983
  1597 B98C 4C 00 06		            jmp L0600
  1598 B98F A9 FF		LB98F       lda #$FF
  1599 B991 8D 00 D5		            sta LD500
  1600 B994 4C 77 E4		            jmp COLDSV
  1601 B997 A0 00		LB997       ldy #$00
  1602 B999 B9 C3 B9		LB999       lda LB9C3,Y
  1603 B99C 99 00 06		            sta L0600,Y
  1604 B99F C8			            iny
  1605 B9A0 D0 F7		            bne LB999
  1606 B9A2 A5 62		            lda PALNTS
  1607 B9A4 F0 07		            beq LB9AD
  1608 B9A6 A9 91		            lda #$91
  1609 B9A8 8D F9 CE		            sta LCEF9
  1610 B9AB D0 05		            bne LB9B2
  1611 B9AD A9 7D		LB9AD       lda #$7D
  1612 B9AF 8D F9 CE		            sta LCEF9
  1613 B9B2 A0 00		LB9B2       ldy #$00
  1614 B9B4 B1 47		            lda (FMSZPG+4),Y
  1615 B9B6 85 45		            sta FMSZPG+2
  1616 B9B8 C8			            iny
  1617 B9B9 B1 47		            lda (FMSZPG+4),Y
  1618 B9BB 85 46		            sta FMSZPG+3
  1619 B9BD C8			            iny
  1620 B9BE B1 47		            lda (FMSZPG+4),Y
  1621 B9C0 4C 00 06		            jmp L0600
  1622 B9C3 8D 00 D5		LB9C3       sta LD500
  1623 B9C6 A0 05		            ldy #$05
  1624 B9C8 B1 45		            lda (FMSZPG+2),Y
  1625 B9CA AA			            tax
  1626 B9CB A0 08		            ldy #$08
  1627 B9CD 91 32		            sta (BUFRLO),Y
  1628 B9CF 88			            dey
  1629 B9D0 B1 45		            lda (FMSZPG+2),Y
  1630 B9D2 8D 02 07		            sta L0702
  1631 B9D5 A0 03		            ldy #$03
  1632 B9D7 B1 45		            lda (FMSZPG+2),Y
  1633 B9D9 8D 01 07		            sta L0701
  1634 B9DC 88			            dey
  1635 B9DD B1 45		            lda (FMSZPG+2),Y
  1636 B9DF 8D 00 07		            sta L0700
  1637 B9E2 A5 49		            lda FMSZPG+6
  1638 B9E4 8D 00 D5		            sta LD500
  1639 B9E7 38			            sec
  1640 B9E8 AD 00 07		            lda L0700
  1641 B9EB E9 18		            sbc #$18
  1642 B9ED 8D 00 07		            sta L0700
  1643 B9F0 AD 01 07		            lda L0701
  1644 B9F3 E9 00		            sbc #$00
  1645 B9F5 8D 01 07		            sta L0701
  1646 B9F8 AD 02 07		            lda L0702
  1647 B9FB E9 00		            sbc #$00
  1648 B9FD 8D 02 07		            sta L0702
  1649 BA00 A0 03		            ldy #$03
  1650 BA02 4E 02 07		LBA02       lsr L0702
  1651 BA05 6E 01 07		            ror L0701
  1652 BA08 6E 00 07		            ror L0700
  1653 BA0B 88			            dey
  1654 BA0C D0 F4		            bne LBA02
  1655 BA0E E0 01		            cpx #$01
  1656 BA10 D0 09		            bne LBA1B
  1657 BA12 4E 02 07		            lsr L0702
  1658 BA15 6E 01 07		            ror L0701
  1659 BA18 6E 00 07		            ror L0700
  1660 BA1B A0 06		LBA1B       ldy #$06
  1661 BA1D 18			            clc
  1662 BA1E AD 00 07		            lda L0700
  1663 BA21 69 03		            adc #$03
  1664 BA23 91 32		            sta (BUFRLO),Y
  1665 BA25 AD 01 07		            lda L0701
  1666 BA28 69 00		            adc #$00
  1667 BA2A C8			            iny
  1668 BA2B 91 32		            sta (BUFRLO),Y
  1669 BA2D A0 08		            ldy #$08
  1670 BA2F B1 32		            lda (BUFRLO),Y
  1671 BA31 D0 17		            bne LBA4A
  1672 BA33 AA			            tax
  1673 BA34 A0 06		            ldy #$06
  1674 BA36 B1 32		            lda (BUFRLO),Y
  1675 BA38 C9 D0		            cmp #$D0
  1676 BA3A 90 13		            bcc LBA4F
  1677 BA3C C8			            iny
  1678 BA3D B1 32		            lda (BUFRLO),Y
  1679 BA3F C9 02		            cmp #$02
  1680 BA41 90 0C		            bcc LBA4F
  1681 BA43 C8			            iny
  1682 BA44 8A			            txa
  1683 BA45 09 10		            ora #$10
  1684 BA47 91 32		            sta (BUFRLO),Y
  1685 BA49 60			            rts
  1686 BA4A 09 30		LBA4A       ora #$30
  1687 BA4C 91 32		            sta (BUFRLO),Y
  1688 BA4E 60			            rts
  1689 BA4F A0 08		LBA4F       ldy #$08
  1690 BA51 8A			            txa
  1691 BA52 09 90		            ora #$90
  1692 BA54 91 32		            sta (BUFRLO),Y
  1693 BA56 60			            rts
  1694 BA57 B9 80 B4		LBA57       lda LB480,Y
  1695 BA5A 99 00 CC		            sta LCC00,Y
  1696 BA5D B9 80 B5		            lda LB580,Y
  1697 BA60 99 00 CD		            sta LCD00,Y
  1698 BA63 A9 00		            lda #$00
  1699 BA65 99 00 CE		            sta LCE00,Y
  1700 BA68 99 00 CF		            sta LCF00,Y
  1701 BA6B C8			            iny
  1702 BA6C D0 E9		            bne LBA57
  1703 BA6E A0 7F		            ldy #$7F
  1704 BA70 B9 80 B6		LBA70       lda LB680,Y
  1705 BA73 99 00 CE		            sta LCE00,Y
  1706 BA76 88			            dey
  1707 BA77 10 F7		            bpl LBA70
  1708 BA79 60			            rts
  1709 BA7A A0 02		LBA7A       ldy #$02
  1710 BA7C B1 47		            lda (FMSZPG+4),Y
  1711 BA7E AA			            tax
  1712 BA7F A0 00		            ldy #$00
  1713 BA81 B1 47		            lda (FMSZPG+4),Y
  1714 BA83 18			            clc
  1715 BA84 69 10		            adc #$10
  1716 BA86 91 32		            sta (BUFRLO),Y
  1717 BA88 C8			            iny
  1718 BA89 B1 47		            lda (FMSZPG+4),Y
  1719 BA8B 69 00		            adc #$00
  1720 BA8D C9 C0		            cmp #$C0
  1721 BA8F D0 03		            bne LBA94
  1722 BA91 E8			            inx
  1723 BA92 A9 80		            lda #$80
  1724 BA94 91 32		LBA94       sta (BUFRLO),Y
  1725 BA96 8A			            txa
  1726 BA97 C8			            iny
  1727 BA98 91 32		            sta (BUFRLO),Y
  1728 BA9A A0 00		            ldy #$00
  1729 BA9C 18			            clc
  1730 BA9D B1 32		            lda (BUFRLO),Y
  1731 BA9F 69 80		            adc #$80
  1732 BAA1 A0 03		            ldy #$03
  1733 BAA3 91 32		            sta (BUFRLO),Y
  1734 BAA5 A0 01		            ldy #$01
  1735 BAA7 B1 32		            lda (BUFRLO),Y
  1736 BAA9 69 01		            adc #$01
  1737 BAAB A0 04		            ldy #$04
  1738 BAAD C9 C0		            cmp #$C0
  1739 BAAF D0 03		            bne LBAB4
  1740 BAB1 E8			            inx
  1741 BAB2 A9 80		            lda #$80
  1742 BAB4 91 32		LBAB4       sta (BUFRLO),Y
  1743 BAB6 8A			            txa
  1744 BAB7 C8			            iny
  1745 BAB8 91 32		            sta (BUFRLO),Y
  1746 BABA 60			            rts
  1747 BABB 78			LBABB       sei
  1748 BABC A0 00		            ldy #$00
  1749 BABE 8C 0E D4		            sty NMIEN
  1750 BAC1 8C 00 D4		            sty DMACLT
  1751 BAC4 84 32		            sty BUFRLO
  1752 BAC6 A9 FF		            lda #$FF
  1753 BAC8 85 33		            sta BUFRHI
  1754 BACA 20 49 BB		LBACA       jsr LBB49
  1755 BACD C6 33		            dec BUFRHI
  1756 BACF A5 33		            lda BUFRHI
  1757 BAD1 C9 D7		            cmp #$D7
  1758 BAD3 D0 F5		            bne LBACA
  1759 BAD5 A9 CF		            lda #$CF
  1760 BAD7 85 33		            sta BUFRHI
  1761 BAD9 20 49 BB		LBAD9       jsr LBB49
  1762 BADC C6 33		            dec BUFRHI
  1763 BADE A5 33		            lda BUFRHI
  1764 BAE0 C9 BF		            cmp #$BF
  1765 BAE2 D0 F5		            bne LBAD9
  1766 BAE4 CE 01 D3		            dec PORTB
  1767 BAE7 A9 D0		            lda #$D0
  1768 BAE9 8D 0B C3		            sta LC30B
  1769 BAEC 8D F9 C2		            sta LC2F9
  1770 BAEF 8D 9F C4		            sta LC49F
  1771 BAF2 A9 1A		            lda #$1A
  1772 BAF4 8D 0C C3		            sta LC30C
  1773 BAF7 A9 AC		            lda #$AC
  1774 BAF9 8D DD C4		            sta LC4DD
  1775 BAFC 8D ED C4		            sta LC4ED
  1776 BAFF A9 FE		            lda #$FE
  1777 BB01 8D F9 C4		            sta LC4F9
  1778 BB04 A9 E6		            lda #$E6
  1779 BB06 8D C0 C4		            sta LC4C0
  1780 BB09 A9 06		            lda #$06
  1781 BB0B 8D C1 C4		            sta LC4C1
  1782 BB0E 8D C3 C4		            sta LC4C3
  1783 BB11 A9 A5		            lda #$A5
  1784 BB13 8D C2 C4		            sta LC4C2
  1785 BB16 A9 C9		            lda #$C9
  1786 BB18 8D C4 C4		            sta LC4C4
  1787 BB1B A9 C0		            lda #$C0
  1788 BB1D 8D C5 C4		            sta LC4C5
  1789 BB20 A9 91		            lda #$91
  1790 BB22 8D F6 C2		            sta LC2F6
  1791 BB25 A9 04		            lda #$04
  1792 BB27 8D F7 C2		            sta LC2F7
  1793 BB2A A9 C8		            lda #$C8
  1794 BB2C 8D F8 C2		            sta LC2F8
  1795 BB2F A9 FB		            lda #$FB
  1796 BB31 8D FA C2		            sta LC2FA
  1797 BB34 A9 AD		            lda #$AD
  1798 BB36 8D 10 C4		            sta LC410
  1799 BB39 A9 4C		            lda #$4C
  1800 BB3B 8D 67 FC		            sta LFC67
  1801 BB3E A9 EA		            lda #$EA
  1802 BB40 8D 68 FC		            sta LFC68
  1803 BB43 A9 CD		            lda #$CD
  1804 BB45 8D 69 FC		            sta LFC69
  1805 BB48 60			            rts
  1806 BB49 B1 32		LBB49       lda (BUFRLO),Y
  1807 BB4B CE 01 D3		            dec PORTB
  1808 BB4E 91 32		            sta (BUFRLO),Y
  1809 BB50 EE 01 D3		            inc PORTB
  1810 BB53 88			            dey
  1811 BB54 D0 F3		            bne LBB49
  1812 BB56 60			LBB56       rts
  1813 BB57 AD 03 80		LBB57       lda L8003
  1814 BB5A 10 04		            bpl LBB60
  1815 BB5C A2 00		            ldx #$00
  1816 BB5E A9 FF		            lda #$FF
  1817 BB60 60			LBB60       rts
  1818 BB61 20 77 BC		LBB61       jsr LBC77
  1819 BB64 20 47 BC		            jsr LBC47
  1820 BB67 20 F9 BC		            jsr LBCF9
  1821 BB6A A2 02		            ldx #$02
  1822 BB6C 20 3B BC		LBB6C       jsr LBC3B
  1823 BB6F 20 81 BB		            jsr LBB81
  1824 BB72 20 47 BC		            jsr LBC47
  1825 BB75 20 81 BB		            jsr LBB81
  1826 BB78 20 81 BB		            jsr LBB81
  1827 BB7B CA			            dex
  1828 BB7C 10 EE		            bpl LBB6C
  1829 BB7E 4C 3B BC		            jmp LBC3B
  1830 BB81 18			LBB81       clc
  1831 BB82 A5 14		            lda RTCLOK+2
  1832 BB84 69 02		            adc #$02
  1833 BB86 C5 14		LBB86       cmp RTCLOK+2
  1834 BB88 D0 FC		            bne LBB86
  1835 BB8A 60			            rts
  1836 BB8B AD 08 07		LBB8B       lda L0708
  1837 BB8E C9 01		            cmp #$01
  1838 BB90 F0 0D		            beq LBB9F
  1839 BB92 C9 02		            cmp #$02
  1840 BB94 F0 27		            beq LBBBD
  1841 BB96 C9 04		            cmp #$04
  1842 BB98 F0 2D		            beq LBBC7
  1843 BB9A C9 08		            cmp #$08
  1844 BB9C F0 35		            beq LBBD3
  1845 BB9E 60			            rts
  1846 BB9F 20 47 BC		LBB9F       jsr LBC47
  1847 BBA2 AE 20 7C		            ldx L7C20
  1848 BBA5 CA			            dex
  1849 BBA6 8A			LBBA6       txa
  1850 BBA7 29 0F		            and #$0F
  1851 BBA9 AA			            tax
  1852 BBAA 8E 20 7C		            stx L7C20
  1853 BBAD 20 F9 BC		            jsr LBCF9
  1854 BBB0 20 3B BC		            jsr LBC3B
  1855 BBB3 A9 00		            lda #$00
  1856 BBB5 8D 08 07		            sta L0708
  1857 BBB8 85 4D		            sta ATRACT
  1858 BBBA 4C B1 B7		            jmp LB7B1
  1859 BBBD 20 47 BC		LBBBD       jsr LBC47
  1860 BBC0 AE 20 7C		            ldx L7C20
  1861 BBC3 E8			            inx
  1862 BBC4 4C A6 BB		            jmp LBBA6
  1863 BBC7 AC 21 7C		LBBC7       ldy L7C21
  1864 BBCA 88			            dey
  1865 BBCB 10 11		            bpl LBBDE
  1866 BBCD AC 22 7C		            ldy L7C22
  1867 BBD0 4C DE BB		            jmp LBBDE
  1868 BBD3 AC 21 7C		LBBD3       ldy L7C21
  1869 BBD6 C8			            iny
  1870 BBD7 CC 23 7C		            cpy L7C23
  1871 BBDA D0 02		            bne LBBDE
  1872 BBDC A0 00		            ldy #$00
  1873 BBDE 8C 21 7C		LBBDE       sty L7C21
  1874 BBE1 A2 00		            ldx #$00
  1875 BBE3 20 F9 BC		            jsr LBCF9
  1876 BBE6 20 04 BD		            jsr LBD04
  1877 BBE9 20 C8 BC		            jsr LBCC8
  1878 BBEC 20 EC BC		            jsr LBCEC
  1879 BBEF AE 21 7C		            ldx L7C21
  1880 BBF2 F0 03		            beq LBBF7
  1881 BBF4 20 19 BC		            jsr LBC19
  1882 BBF7 20 89 BC		LBBF7       jsr LBC89
  1883 BBFA 20 53 BC		            jsr LBC53
  1884 BBFD AE 20 7C		            ldx L7C20
  1885 BC00 20 F9 BC		            jsr LBCF9
  1886 BC03 20 3B BC		            jsr LBC3B
  1887 BC06 20 81 BB		            jsr LBB81
  1888 BC09 20 81 BB		            jsr LBB81
  1889 BC0C 20 81 BB		            jsr LBB81
  1890 BC0F A9 00		            lda #$00
  1891 BC11 8D 08 07		            sta L0708
  1892 BC14 85 4D		            sta ATRACT
  1893 BC16 4C 81 BB		            jmp LBB81
  1894 BC19 18			LBC19       clc
  1895 BC1A A5 47		            lda FMSZPG+4
  1896 BC1C 69 80		            adc #$80
  1897 BC1E 85 47		            sta FMSZPG+4
  1898 BC20 A5 48		            lda FMSZPG+5
  1899 BC22 69 02		            adc #$02
  1900 BC24 85 48		            sta FMSZPG+5
  1901 BC26 CA			            dex
  1902 BC27 D0 F0		            bne LBC19
  1903 BC29 60			            rts
  1904 BC2A 18			LBC2A       clc
  1905 BC2B A5 47		            lda FMSZPG+4
  1906 BC2D 69 28		            adc #$28
  1907 BC2F 85 47		            sta FMSZPG+4
  1908 BC31 A5 48		            lda FMSZPG+5
  1909 BC33 69 00		            adc #$00
  1910 BC35 85 48		            sta FMSZPG+5
  1911 BC37 CA			            dex
  1912 BC38 D0 F0		            bne LBC2A
  1913 BC3A 60			            rts
  1914 BC3B A0 27		LBC3B       ldy #$27
  1915 BC3D B1 45		LBC3D       lda (FMSZPG+2),Y
  1916 BC3F 09 80		            ora #$80
  1917 BC41 91 45		            sta (FMSZPG+2),Y
  1918 BC43 88			            dey
  1919 BC44 10 F7		            bpl LBC3D
  1920 BC46 60			            rts
  1921 BC47 A0 27		LBC47       ldy #$27
  1922 BC49 B1 45		LBC49       lda (FMSZPG+2),Y
  1923 BC4B 29 7F		            and #$7F
  1924 BC4D 91 45		            sta (FMSZPG+2),Y
  1925 BC4F 88			            dey
  1926 BC50 10 F7		            bpl LBC49
  1927 BC52 60			            rts
  1928 BC53 A0 28		LBC53       ldy #$28
  1929 BC55 B9 4C BF		LBC55       lda LBF4C,Y
  1930 BC58 99 C0 7E		            sta L7EC0,Y
  1931 BC5B 88			            dey
  1932 BC5C 10 F7		            bpl LBC55
  1933 BC5E AC 22 7C		            ldy L7C22
  1934 BC61 20 46 BD		            jsr LBD46
  1935 BC64 8E D7 7E		            stx L7ED7
  1936 BC67 8D D8 7E		            sta L7ED8
  1937 BC6A AC 21 7C		            ldy L7C21
  1938 BC6D 20 46 BD		            jsr LBD46
  1939 BC70 8E D4 7E		            stx L7ED4
  1940 BC73 8D D5 7E		            sta L7ED5
  1941 BC76 60			            rts
  1942 BC77 A0 7E		LBC77       ldy #$7E
  1943 BC79 8C 1F D0		LBC79       sty CONSOL
  1944 BC7C AD 0B D4		            lda VCOUNT
  1945 BC7F CD 0B D4		LBC7F       cmp VCOUNT
  1946 BC82 F0 FB		            beq LBC7F
  1947 BC84 88			            dey
  1948 BC85 88			            dey
  1949 BC86 10 F1		            bpl LBC79
  1950 BC88 60			            rts
  1951 BC89 A2 00		LBC89       ldx #$00
  1952 BC8B 20 F9 BC		            jsr LBCF9
  1953 BC8E A5 45		            lda FMSZPG+2
  1954 BC90 18			            clc
  1955 BC91 69 04		            adc #$04
  1956 BC93 85 45		            sta FMSZPG+2
  1957 BC95 A2 10		            ldx #$10
  1958 BC97 A0 00		LBC97       ldy #$00
  1959 BC99 B1 47		LBC99       lda (FMSZPG+4),Y
  1960 BC9B C9 FF		            cmp #$FF
  1961 BC9D F0 0D		            beq LBCAC
  1962 BC9F 91 45		            sta (FMSZPG+2),Y
  1963 BCA1 C8			            iny
  1964 BCA2 C0 21		            cpy #$21
  1965 BCA4 D0 F3		            bne LBC99
  1966 BCA6 20 AD BC		            jsr LBCAD
  1967 BCA9 CA			            dex
  1968 BCAA D0 EB		            bne LBC97
  1969 BCAC 60			LBCAC       rts
  1970 BCAD 18			LBCAD       clc
  1971 BCAE A5 45		            lda FMSZPG+2
  1972 BCB0 69 28		            adc #$28
  1973 BCB2 85 45		            sta FMSZPG+2
  1974 BCB4 A5 46		            lda FMSZPG+3
  1975 BCB6 69 00		            adc #$00
  1976 BCB8 85 46		            sta FMSZPG+3
  1977 BCBA 18			            clc
  1978 BCBB A5 47		            lda FMSZPG+4
  1979 BCBD 69 28		            adc #$28
  1980 BCBF 85 47		            sta FMSZPG+4
  1981 BCC1 A5 48		            lda FMSZPG+5
  1982 BCC3 69 00		            adc #$00
  1983 BCC5 85 48		            sta FMSZPG+5
  1984 BCC7 60			            rts
  1985 BCC8 A2 00		LBCC8       ldx #$00
  1986 BCCA 20 F9 BC		            jsr LBCF9
  1987 BCCD A0 00		LBCCD       ldy #$00
  1988 BCCF BD AE BD		LBCCF       lda LBDAE,X
  1989 BCD2 91 45		            sta (FMSZPG+2),Y
  1990 BCD4 E8			            inx
  1991 BCD5 C8			            iny
  1992 BCD6 C0 03		            cpy #$03
  1993 BCD8 D0 F5		            bne LBCCF
  1994 BCDA 18			            clc
  1995 BCDB A5 45		            lda FMSZPG+2
  1996 BCDD 69 28		            adc #$28
  1997 BCDF 85 45		            sta FMSZPG+2
  1998 BCE1 A5 46		            lda FMSZPG+3
  1999 BCE3 69 00		            adc #$00
  2000 BCE5 85 46		            sta FMSZPG+3
  2001 BCE7 E0 30		            cpx #$30
  2002 BCE9 D0 E2		            bne LBCCD
  2003 BCEB 60			            rts
  2004 BCEC A9 07		LBCEC       lda #$07
  2005 BCEE 85 47		LBCEE       sta FMSZPG+4
  2006 BCF0 A9 80		            lda #$80
  2007 BCF2 85 48		            sta FMSZPG+5
  2008 BCF4 60			            rts
  2009 BCF5 A9 00		LBCF5       lda #$00
  2010 BCF7 F0 F5		            beq LBCEE
  2011 BCF9 BD F6 BD		LBCF9       lda LBDF6,X
  2012 BCFC 85 45		            sta FMSZPG+2
  2013 BCFE BD 06 BE		            lda LBE06,X
  2014 BD01 85 46		            sta FMSZPG+3
  2015 BD03 60			            rts
  2016 BD04 A2 00		LBD04       ldx #$00
  2017 BD06 20 F9 BC		            jsr LBCF9
  2018 BD09 A2 02		            ldx #$02
  2019 BD0B A0 00		            ldy #$00
  2020 BD0D 98			            tya
  2021 BD0E 91 45		LBD0E       sta (FMSZPG+2),Y
  2022 BD10 C8			            iny
  2023 BD11 D0 FB		            bne LBD0E
  2024 BD13 E6 46		            inc FMSZPG+3
  2025 BD15 CA			            dex
  2026 BD16 10 F6		            bpl LBD0E
  2027 BD18 60			            rts
  2028 BD19 20 EC BC		LBD19       jsr LBCEC
  2029 BD1C 18			LBD1C       clc
  2030 BD1D A5 47		            lda FMSZPG+4
  2031 BD1F 69 80		            adc #$80
  2032 BD21 85 47		            sta FMSZPG+4
  2033 BD23 A5 48		            lda FMSZPG+5
  2034 BD25 69 02		            adc #$02
  2035 BD27 85 48		            sta FMSZPG+5
  2036 BD29 A0 00		            ldy #$00
  2037 BD2B B1 47		            lda (FMSZPG+4),Y
  2038 BD2D C9 FF		            cmp #$FF
  2039 BD2F F0 0D		            beq LBD3E
  2040 BD31 EE 22 7C		            inc L7C22
  2041 BD34 AD 22 7C		            lda L7C22
  2042 BD37 C9 12		            cmp #$12
  2043 BD39 F0 03		            beq LBD3E
  2044 BD3B 4C 1C BD		            jmp LBD1C
  2045 BD3E AC 22 7C		LBD3E       ldy L7C22
  2046 BD41 C8			            iny
  2047 BD42 8C 23 7C		            sty L7C23
  2048 BD45 60			            rts
  2049 BD46 C8			LBD46       iny
  2050 BD47 98			            tya
  2051 BD48 A2 00		            ldx #$00
  2052 BD4A A0 01		            ldy #$01
  2053 BD4C 38			LBD4C       sec
  2054 BD4D E9 01		            sbc #$01
  2055 BD4F F0 0A		            beq LBD5B
  2056 BD51 C8			            iny
  2057 BD52 C0 0A		            cpy #$0A
  2058 BD54 D0 F6		            bne LBD4C
  2059 BD56 E8			            inx
  2060 BD57 A0 00		            ldy #$00
  2061 BD59 F0 F1		            beq LBD4C
  2062 BD5B 8A			LBD5B       txa
  2063 BD5C 18			            clc
  2064 BD5D 69 10		            adc #$10
  2065 BD5F AA			            tax
  2066 BD60 98			            tya
  2067 BD61 18			            clc
  2068 BD62 69 10		            adc #$10
  2069 BD64 60			            rts
  2070 BD65 A2 14		LBD65       ldx #$14
  2071 BD67 A0 00		            ldy #$00
  2072 BD69 88			LBD69       dey
  2073 BD6A D0 FD		            bne LBD69
  2074 BD6C CA			            dex
  2075 BD6D D0 FA		            bne LBD69
  2076 BD6F 60			            rts
  2077 BD70 48			            pha
  2078 BD71 98			            tya
  2079 BD72 48			            pha
  2080 BD73 A0 10		            ldy #$10
  2081 BD75 B9 9E BD		LBD75       lda LBD9E,Y
  2082 BD78 8D 0A D4		            sta WSYNC
  2083 BD7B 8D 16 D0		            sta COLPF0
  2084 BD7E 88			            dey
  2085 BD7F 10 F4		            bpl LBD75
  2086 BD81 AD 24 7C		            lda L7C24
  2087 BD84 C9 05		            cmp #$05
  2088 BD86 D0 0F		            bne LBD97
  2089 BD88 A9 00		            lda #$00
  2090 BD8A 8D 24 7C		            sta L7C24
  2091 BD8D AD 00 D3		            lda PORTA
  2092 BD90 49 FF		            eor #$FF
  2093 BD92 F0 03		            beq LBD97
  2094 BD94 8D 08 07		            sta L0708
  2095 BD97 EE 24 7C		LBD97       inc L7C24
  2096 BD9A 68			            pla
  2097 BD9B A8			            tay
  2098 BD9C 68			            pla
  2099 BD9D 40			            rti
  2100 BD9E 10 12 14 16 18 1A + LBD9E       .byte $10,$12,$14,$16,$18,$1A,$1C,$1F,$1F,$3C,$3A,$38,$36,$34,$32,$30
  2101 BDAE 1C 21 1E 1C 22 1E + LBDAE       .byte $1C,$21,$1E,$1C,$22,$1E,$1C,$23,$1E,$1C,$24,$1E,$1C,$25,$1E,$1C
  2102 BDBE 26 1E 1C 27 1E 1C +             .byte $26,$1E,$1C,$27,$1E,$1C,$28,$1E,$1C,$29,$1E,$1C,$2A,$1E,$1C,$2B
  2103 BDCE 1E 1C 2C 1E 1C 2D +             .byte $1E,$1C,$2C,$1E,$1C,$2D,$1E,$1C,$2E,$1E,$1C,$2F,$1E,$1C,$30,$1E
  2104 BDDE 3F 15 12 3A 2A 38 + LBDDE       .byte $3F,$15,$12,$3A,$2A,$38,$3D,$39,$0D,$01,$05,$00,$25,$23,$08,$0A
  2105 BDEE 06 07 0E 0F		LBDEE       .byte $06,$07,$0E,$0F
  2106 BDF2 04 08 01 02		LBDF2       .byte $04,$08,$01,$02
  2107 BDF6 40 68 90 B8 E0 08 + LBDF6       .byte $40,$68,$90,$B8,$E0,$08,$30,$58,$80,$A8,$D0,$F8,$20,$48,$70,$98
  2108 BE06 7C 7C 7C 7C 7C 7D + LBE06       .byte $7C,$7C,$7C,$7C,$7C,$7D,$7D,$7D,$7D,$7D,$7D,$7D,$7E,$7E,$7E,$7E
  2109 BE16 04 68 90 B8 E0 08 +             .byte $04,$68,$90,$B8,$E0,$08,$30,$58,$80,$A8,$D0,$F8,$20,$48,$70,$98
  2110 BE26 80 7C 7C 7C 7C 7D +             .byte $80,$7C,$7C,$7C,$7C,$7D,$7D,$7D,$7D,$7D,$7D,$7D,$7E,$7E,$7E,$7E
  2111 BE36 70			            .byte AEMPTY8
  2112 BE37 70			            .byte AEMPTY8
  2113 BE38 70			            .byte AEMPTY8
  2114 BE39 70			            .byte AEMPTY8
  2115 BE3A 70			            .byte AEMPTY8
  2116 BE3B 42			            .byte ALMS+$02
  2117 BE3C 0C 06		            .word L060C
  2118 BE3E 02			            .byte $02
  2119 BE3F 41			            .byte AVB+AJMP
  2120 BE40 00 06		            .word L0600
  2121 BE42 00 00 00 00 34 68 +             .byte $00,$00,$00,$00,$34,$68,$65,$00,$70,$72,$6F,$67,$72,$61,$6D,$00
  2122 BE52 6E 65 65 64 00 14 +             .byte $6E,$65,$65,$64,$00,$14,$18,$6B,$00,$32,$21,$2D,$00,$6D,$65,$6D
  2123 BE62 6F 72 79 00 00 00 +             .byte $6F,$72,$79,$00,$00,$00,$00,$00,$00,$00,$00,$00,$00,$35,$73,$65
  2124 BE72 00 6D 6F 72 65 00 +             .byte $00,$6D,$6F,$72,$65,$00,$32,$21,$2D,$00,$61,$6E,$64,$00,$73,$74
  2125 BE82 61 72 74 00 61 67 +             .byte $61,$72,$74,$00,$61,$67,$61,$69,$6E,$00,$00,$00,$00,$00,$00,$00
  2126 BE92 70			LBE92       .byte AEMPTY8
  2127 BE93 70			            .byte AEMPTY8
  2128 BE94 70			            .byte AEMPTY8
  2129 BE95 70			            .byte AEMPTY8
  2130 BE96 70			            .byte AEMPTY8
  2131 BE97 42			            .byte ALMS+$02
  2132 BE98 0B 06		            .word L060B
  2133 BE9A 41			            .byte AVB+AJMP
  2134 BE9B 00 06		            .word L0600
  2135 BE9D 21 34 32 0D 2C 6F +             .byte $21,$34,$32,$0D,$2C,$6F,$61,$64,$65,$72,$00,$6E,$65,$65,$64,$00
  2136 BEAD 6F 72 69 67 69 6E +             .byte $6F,$72,$69,$67,$69,$6E,$61,$6C,$00,$21,$74,$61,$72,$69,$00,$38
  2137 BEBD 2C 0F 38 25 00 2F +             .byte $2C,$0F,$38,$25,$00,$2F,$33,$00
  2138 BEC5 70			LBEC5       .byte AEMPTY8
  2139 BEC6 70			            .byte AEMPTY8
  2140 BEC7 80			            .byte ADLI+AEMPTY1
  2141 BEC8 47			            .byte ALMS+$07
  2142 BEC9 E8 BE		            .word LBEE8
  2143 BECB 70			            .byte AEMPTY8
  2144 BECC 42			            .byte ALMS+$02
  2145 BECD 40 7C		            .word L7C40
  2146 BECF 02 02 02 02 02 02 +             .byte $02,$02,$02,$02,$02,$02,$02,$02,$02,$02,$02,$02,$02,$02,$02
  2147 BEDE 50			            .byte AEMPTY6
  2148 BEDF 02			            .byte $02
  2149 BEE0 60			            .byte AEMPTY7
  2150 BEE1 42			            .byte ALMS+$02
  2151 BEE2 FC BE		            .word LBEFC
  2152 BEE4 02			            .byte $02
  2153 BEE5 41			            .byte AVB+AJMP
  2154 BEE6 C5 BE		            .word LBEC5
  2155 BEE8 2D 35 2C 34 29 00 + LBEE8       .byte $2D,$35,$2C,$34,$29,$00,$26,$2C,$21,$33,$28,$00,$2D,$25,$27,$21
  2156 BEF8 23 21 32 34		            .byte $23,$21,$32,$34
  2157 BEFC 80 A6 A9 AC A5 80 + LBEFC       .byte $80,$A6,$A9,$AC,$A5,$80,$AC,$AF,$A1,$A4,$A5,$B2,$80,$B6,$94,$8E
  2158 BF0C 94 80 88 E3 89 80 +             .byte $94,$80,$88,$E3,$89,$80,$92,$EB,$91,$93,$80,$E2,$F9,$80,$A2,$8E
  2159 BF1C 80 A8 E5 F2 E1 EC +             .byte $80,$A8,$E5,$F2,$E1,$EC,$E5,$80,$80,$B0,$A3,$80,$B0,$F2,$EF,$E7
  2160 BF2C F2 E1 ED 80 88 E3 +             .byte $F2,$E1,$ED,$80,$88,$E3,$89,$80,$92,$EB,$91,$93,$80,$E2,$F9,$80
  2161 BF3C AD E1 F2 E3 E9 EE +             .byte $AD,$E1,$F2,$E3,$E9,$EE,$80,$B3,$EF,$E3,$E8,$E1,$E3,$EB,$E9,$80
  2162 BF4C 00 00 00 00 00 00 + LBF4C       .byte $00,$00,$00,$00,$00,$00,$00,$00,$00,$00,$00,$00,$00,$00,$00,$30
  2163 BF5C 61 67 65 00 10 10 +             .byte $61,$67,$65,$00,$10,$10,$0F,$10,$10,$00,$00,$00,$00,$00,$00,$00
  2164 BF6C 00 00 00 00 00 00 +             .byte $00,$00,$00,$00,$00,$00,$00,$00,$00,$00,$00,$00,$00,$00,$00,$00
  2165 BF7C 00 00 00 00 00 00 +             .byte $00,$00,$00,$00,$00,$00,$00,$00,$00,$00,$00,$00,$00,$00,$00,$00
  2166 BF8C 00 00 00 00 00 00 +             .byte $00,$00,$00,$00,$00,$00,$00,$00,$00,$00,$00,$00,$00,$00,$00,$00
  2167 BF9C 00 00 00 00 00 00 +             .byte $00,$00,$00,$00,$00,$00,$00,$00,$00,$00,$00,$00,$00,$00,$00,$00
  2168 BFAC 00 00 00 00 00 00 +             .byte $00,$00,$00,$00,$00,$00,$00,$00,$00,$00,$00,$00,$00,$00,$00,$00
  2169 BFBC 00 00 00 00		            .byte $00,$00,$00,$00
  2170 BFC0 28 43 29 32 30 31 +             .byte '(C)2013 BY BERND HERALE - VERSION 4.3   -11.12.2013'
  2171 BFF3 00 00 00 00 00 00 +             .byte $00,$00,$00,$00,$00,$00,$00
  2172 BFFA 00 B7		            .word LB700
  2173 BFFC 00 04		            .byte $00,$04
  2174 BFFE 56 BB		            .word LBB56
  2175 				;
  2176 				         
